	.section	__TEXT,__text,regular,pure_instructions
	.build_version macos, 10, 15	sdk_version 10, 15
	.file	1 "/Applications/Xcode.app/Contents/Developer/Toolchains/XcodeDefault.xctoolchain/usr/bin/../include/c++/v1" "ios"
	.file	2 "/Applications/Xcode.app/Contents/Developer/Toolchains/XcodeDefault.xctoolchain/usr/lib/clang/11.0.0/include" "stddef.h"
	.file	3 "/Applications/Xcode.app/Contents/Developer/Platforms/MacOSX.platform/Developer/SDKs/MacOSX.sdk/usr/include/i386" "_types.h"
	.file	4 "/Applications/Xcode.app/Contents/Developer/Platforms/MacOSX.platform/Developer/SDKs/MacOSX.sdk/usr/include/sys/_types" "_size_t.h"
	.file	5 "/Applications/Xcode.app/Contents/Developer/Toolchains/XcodeDefault.xctoolchain/usr/bin/../include/c++/v1" "__locale"
	.file	6 "/Applications/Xcode.app/Contents/Developer/Toolchains/XcodeDefault.xctoolchain/usr/bin/../include/c++/v1" "string"
	.file	7 "/Applications/Xcode.app/Contents/Developer/Toolchains/XcodeDefault.xctoolchain/usr/bin/../include/c++/v1" "memory"
	.file	8 "/Applications/Xcode.app/Contents/Developer/Toolchains/XcodeDefault.xctoolchain/usr/bin/../include/c++/v1" "type_traits"
	.file	9 "/Applications/Xcode.app/Contents/Developer/Toolchains/XcodeDefault.xctoolchain/usr/bin/../include/c++/v1" "initializer_list"
	.file	10 "/Applications/Xcode.app/Contents/Developer/Toolchains/XcodeDefault.xctoolchain/usr/bin/../include/c++/v1" "string_view"
	.file	11 "/Applications/Xcode.app/Contents/Developer/Toolchains/XcodeDefault.xctoolchain/usr/bin/../include/c++/v1" "__string"
	.file	12 "/Applications/Xcode.app/Contents/Developer/Toolchains/XcodeDefault.xctoolchain/usr/bin/../include/c++/v1" "iosfwd"
	.file	13 "/Applications/Xcode.app/Contents/Developer/Toolchains/XcodeDefault.xctoolchain/usr/bin/../include/c++/v1" "mutex"
	.file	14 "/Applications/Xcode.app/Contents/Developer/Platforms/MacOSX.platform/Developer/SDKs/MacOSX.sdk/usr/include/sys/_types" "_int32_t.h"
	.file	15 "/Applications/Xcode.app/Contents/Developer/Toolchains/XcodeDefault.xctoolchain/usr/bin/../include/c++/v1" "iterator"
	.file	16 "/Applications/Xcode.app/Contents/Developer/Toolchains/XcodeDefault.xctoolchain/usr/bin/../include/c++/v1" "streambuf"
	.file	17 "/Applications/Xcode.app/Contents/Developer/Toolchains/XcodeDefault.xctoolchain/usr/bin/../include/c++/v1" "ostream"
	.file	18 "/Applications/Xcode.app/Contents/Developer/Toolchains/XcodeDefault.xctoolchain/usr/bin/../include/c++/v1" "cstddef"
	.file	19 "/Applications/Xcode.app/Contents/Developer/Toolchains/XcodeDefault.xctoolchain/usr/lib/clang/11.0.0/include" "__stddef_max_align_t.h"
	.file	20 "/Applications/Xcode.app/Contents/Developer/Toolchains/XcodeDefault.xctoolchain/usr/bin/../include/c++/v1" "cstring"
	.file	21 "/Applications/Xcode.app/Contents/Developer/Platforms/MacOSX.platform/Developer/SDKs/MacOSX.sdk/usr/include" "string.h"
	.file	22 "/Applications/Xcode.app/Contents/Developer/Toolchains/XcodeDefault.xctoolchain/usr/bin/../include/c++/v1" "string.h"
	.file	23 "/Applications/Xcode.app/Contents/Developer/Platforms/MacOSX.platform/Developer/SDKs/MacOSX.sdk/usr/include/sys/_types" "_int8_t.h"
	.file	24 "/Applications/Xcode.app/Contents/Developer/Toolchains/XcodeDefault.xctoolchain/usr/bin/../include/c++/v1" "cstdint"
	.file	25 "/Applications/Xcode.app/Contents/Developer/Platforms/MacOSX.platform/Developer/SDKs/MacOSX.sdk/usr/include/sys/_types" "_int16_t.h"
	.file	26 "/Applications/Xcode.app/Contents/Developer/Platforms/MacOSX.platform/Developer/SDKs/MacOSX.sdk/usr/include/sys/_types" "_int64_t.h"
	.file	27 "/Applications/Xcode.app/Contents/Developer/Platforms/MacOSX.platform/Developer/SDKs/MacOSX.sdk/usr/include/_types" "_uint8_t.h"
	.file	28 "/Applications/Xcode.app/Contents/Developer/Platforms/MacOSX.platform/Developer/SDKs/MacOSX.sdk/usr/include/_types" "_uint16_t.h"
	.file	29 "/Applications/Xcode.app/Contents/Developer/Platforms/MacOSX.platform/Developer/SDKs/MacOSX.sdk/usr/include/_types" "_uint32_t.h"
	.file	30 "/Applications/Xcode.app/Contents/Developer/Platforms/MacOSX.platform/Developer/SDKs/MacOSX.sdk/usr/include/_types" "_uint64_t.h"
	.file	31 "/Applications/Xcode.app/Contents/Developer/Platforms/MacOSX.platform/Developer/SDKs/MacOSX.sdk/usr/include" "stdint.h"
	.file	32 "/Applications/Xcode.app/Contents/Developer/Platforms/MacOSX.platform/Developer/SDKs/MacOSX.sdk/usr/include/sys/_types" "_intptr_t.h"
	.file	33 "/Applications/Xcode.app/Contents/Developer/Platforms/MacOSX.platform/Developer/SDKs/MacOSX.sdk/usr/include/sys/_types" "_uintptr_t.h"
	.file	34 "/Applications/Xcode.app/Contents/Developer/Platforms/MacOSX.platform/Developer/SDKs/MacOSX.sdk/usr/include/_types" "_intmax_t.h"
	.file	35 "/Applications/Xcode.app/Contents/Developer/Platforms/MacOSX.platform/Developer/SDKs/MacOSX.sdk/usr/include/_types" "_uintmax_t.h"
	.file	36 "/Applications/Xcode.app/Contents/Developer/Toolchains/XcodeDefault.xctoolchain/usr/bin/../include/c++/v1" "cstdlib"
	.file	37 "/Applications/Xcode.app/Contents/Developer/Platforms/MacOSX.platform/Developer/SDKs/MacOSX.sdk/usr/include" "stdlib.h"
	.file	38 "/Applications/Xcode.app/Contents/Developer/Platforms/MacOSX.platform/Developer/SDKs/MacOSX.sdk/usr/include/malloc" "_malloc.h"
	.file	39 "/Applications/Xcode.app/Contents/Developer/Toolchains/XcodeDefault.xctoolchain/usr/bin/../include/c++/v1" "stdlib.h"
	.file	40 "/Applications/Xcode.app/Contents/Developer/Platforms/MacOSX.platform/Developer/SDKs/MacOSX.sdk/usr/include" "_stdio.h"
	.file	41 "/Applications/Xcode.app/Contents/Developer/Platforms/MacOSX.platform/Developer/SDKs/MacOSX.sdk/usr/include/sys" "_types.h"
	.file	42 "/Applications/Xcode.app/Contents/Developer/Toolchains/XcodeDefault.xctoolchain/usr/bin/../include/c++/v1" "cstdio"
	.file	43 "/Applications/Xcode.app/Contents/Developer/Platforms/MacOSX.platform/Developer/SDKs/MacOSX.sdk/usr/include" "stdio.h"
	.file	44 "/Applications/Xcode.app/Contents/Developer/Platforms/MacOSX.platform/Developer/SDKs/MacOSX.sdk/usr/include" "_ctype.h"
	.file	45 "/Applications/Xcode.app/Contents/Developer/Toolchains/XcodeDefault.xctoolchain/usr/bin/../include/c++/v1" "cctype"
	.file	46 "/Applications/Xcode.app/Contents/Developer/Platforms/MacOSX.platform/Developer/SDKs/MacOSX.sdk/usr/include/sys/_types" "_wint_t.h"
	.file	47 "/Applications/Xcode.app/Contents/Developer/Toolchains/XcodeDefault.xctoolchain/usr/bin/../include/c++/v1" "cwctype"
	.file	48 "/Applications/Xcode.app/Contents/Developer/Platforms/MacOSX.platform/Developer/SDKs/MacOSX.sdk/usr/include" "_types.h"
	.file	49 "/Applications/Xcode.app/Contents/Developer/Platforms/MacOSX.platform/Developer/SDKs/MacOSX.sdk/usr/include/_types" "_wctrans_t.h"
	.file	50 "/Applications/Xcode.app/Contents/Developer/Platforms/MacOSX.platform/Developer/SDKs/MacOSX.sdk/usr/include/_types" "_wctype_t.h"
	.file	51 "/Applications/Xcode.app/Contents/Developer/Platforms/MacOSX.platform/Developer/SDKs/MacOSX.sdk/usr/include" "_wctype.h"
	.file	52 "/Applications/Xcode.app/Contents/Developer/Platforms/MacOSX.platform/Developer/SDKs/MacOSX.sdk/usr/include" "wctype.h"
	.file	53 "/Applications/Xcode.app/Contents/Developer/Platforms/MacOSX.platform/Developer/SDKs/MacOSX.sdk/usr/include/sys/_types" "_mbstate_t.h"
	.file	54 "/Applications/Xcode.app/Contents/Developer/Toolchains/XcodeDefault.xctoolchain/usr/bin/../include/c++/v1" "cwchar"
	.file	55 "/Applications/Xcode.app/Contents/Developer/Platforms/MacOSX.platform/Developer/SDKs/MacOSX.sdk/usr/include" "time.h"
	.file	56 "/Applications/Xcode.app/Contents/Developer/Platforms/MacOSX.platform/Developer/SDKs/MacOSX.sdk/usr/include" "wchar.h"
	.file	57 "/Applications/Xcode.app/Contents/Developer/Toolchains/XcodeDefault.xctoolchain/usr/bin/../include/c++/v1" "wchar.h"
	.file	58 "/Applications/Xcode.app/Contents/Developer/Platforms/MacOSX.platform/Developer/SDKs/MacOSX.sdk/usr/include/sys/_types" "_clock_t.h"
	.file	59 "/Applications/Xcode.app/Contents/Developer/Toolchains/XcodeDefault.xctoolchain/usr/bin/../include/c++/v1" "ctime"
	.file	60 "/Applications/Xcode.app/Contents/Developer/Platforms/MacOSX.platform/Developer/SDKs/MacOSX.sdk/usr/include/sys/_types" "_time_t.h"
	.file	61 "/Applications/Xcode.app/Contents/Developer/Toolchains/XcodeDefault.xctoolchain/usr/bin/../include/c++/v1" "chrono"
	.globl	__ZN8MyStringC2Ev       ## -- Begin function _ZN8MyStringC2Ev
	.p2align	4, 0x90
__ZN8MyStringC2Ev:                      ## @_ZN8MyStringC2Ev
Lfunc_begin0:
	.file	62 "/Users/hansblackcat/Documents/Git/C_Cpp/Cpplang" "perfect_forwarding.cpp"
	.loc	62 38 0                 ## perfect_forwarding.cpp:38:0
	.cfi_startproc
## %bb.0:
	pushq	%rbp
	.cfi_def_cfa_offset 16
	.cfi_offset %rbp, -16
	movq	%rsp, %rbp
	.cfi_def_cfa_register %rbp
	subq	$32, %rsp
	movq	__ZNSt3__14coutE@GOTPCREL(%rip), %rax
	movq	%rdi, -8(%rbp)
	movq	-8(%rbp), %rdi
	movq	%rdi, -16(%rbp)         ## 8-byte Spill
Ltmp0:
	.loc	62 39 15 prologue_end   ## perfect_forwarding.cpp:39:15
	movq	%rax, %rdi
	leaq	L_.str(%rip), %rsi
	callq	__ZNSt3__1lsINS_11char_traitsIcEEEERNS_13basic_ostreamIcT_EES6_PKc
	.loc	62 39 38 is_stmt 0      ## perfect_forwarding.cpp:39:38
	movq	%rax, %rdi
	leaq	__ZNSt3__1L4endlIcNS_11char_traitsIcEEEERNS_13basic_ostreamIT_T0_EES7_(%rip), %rsi
	callq	__ZNSt3__113basic_ostreamIcNS_11char_traitsIcEEElsEPFRS3_S4_E
	movq	-16(%rbp), %rsi         ## 8-byte Reload
	.loc	62 40 19 is_stmt 1      ## perfect_forwarding.cpp:40:19
	movl	$0, 8(%rsi)
	.loc	62 41 21                ## perfect_forwarding.cpp:41:21
	movl	$0, 12(%rsi)
	.loc	62 42 20                ## perfect_forwarding.cpp:42:20
	movq	$0, (%rsi)
	movq	%rax, -24(%rbp)         ## 8-byte Spill
Ltmp1:
	.loc	62 43 1                 ## perfect_forwarding.cpp:43:1
	addq	$32, %rsp
	popq	%rbp
	retq
Ltmp2:
Lfunc_end0:
	.cfi_endproc
                                        ## -- End function
	.globl	__ZNSt3__1lsINS_11char_traitsIcEEEERNS_13basic_ostreamIcT_EES6_PKc ## -- Begin function _ZNSt3__1lsINS_11char_traitsIcEEEERNS_13basic_ostreamIcT_EES6_PKc
	.weak_definition	__ZNSt3__1lsINS_11char_traitsIcEEEERNS_13basic_ostreamIcT_EES6_PKc
	.p2align	4, 0x90
__ZNSt3__1lsINS_11char_traitsIcEEEERNS_13basic_ostreamIcT_EES6_PKc: ## @_ZNSt3__1lsINS_11char_traitsIcEEEERNS_13basic_ostreamIcT_EES6_PKc
Lfunc_begin1:
	.loc	17 864 0                ## /Applications/Xcode.app/Contents/Developer/Toolchains/XcodeDefault.xctoolchain/usr/bin/../include/c++/v1/ostream:864:0
	.cfi_startproc
## %bb.0:
	pushq	%rbp
	.cfi_def_cfa_offset 16
	.cfi_offset %rbp, -16
	movq	%rsp, %rbp
	.cfi_def_cfa_register %rbp
	subq	$32, %rsp
	movq	%rdi, -8(%rbp)
	movq	%rsi, -16(%rbp)
Ltmp3:
	.loc	17 865 47 prologue_end  ## /Applications/Xcode.app/Contents/Developer/Toolchains/XcodeDefault.xctoolchain/usr/bin/../include/c++/v1/ostream:865:47
	movq	-8(%rbp), %rdi
	.loc	17 865 53 is_stmt 0     ## /Applications/Xcode.app/Contents/Developer/Toolchains/XcodeDefault.xctoolchain/usr/bin/../include/c++/v1/ostream:865:53
	movq	-16(%rbp), %rsi
	.loc	17 865 76               ## /Applications/Xcode.app/Contents/Developer/Toolchains/XcodeDefault.xctoolchain/usr/bin/../include/c++/v1/ostream:865:76
	movq	-16(%rbp), %rax
	movq	%rdi, -24(%rbp)         ## 8-byte Spill
	.loc	17 865 60               ## /Applications/Xcode.app/Contents/Developer/Toolchains/XcodeDefault.xctoolchain/usr/bin/../include/c++/v1/ostream:865:60
	movq	%rax, %rdi
	movq	%rsi, -32(%rbp)         ## 8-byte Spill
	callq	__ZNSt3__111char_traitsIcE6lengthEPKc
	movq	-24(%rbp), %rdi         ## 8-byte Reload
	movq	-32(%rbp), %rsi         ## 8-byte Reload
	.loc	17 865 12               ## /Applications/Xcode.app/Contents/Developer/Toolchains/XcodeDefault.xctoolchain/usr/bin/../include/c++/v1/ostream:865:12
	movq	%rax, %rdx
	callq	__ZNSt3__124__put_character_sequenceIcNS_11char_traitsIcEEEERNS_13basic_ostreamIT_T0_EES7_PKS4_m
	.loc	17 865 5                ## /Applications/Xcode.app/Contents/Developer/Toolchains/XcodeDefault.xctoolchain/usr/bin/../include/c++/v1/ostream:865:5
	addq	$32, %rsp
	popq	%rbp
	retq
Ltmp4:
Lfunc_end1:
	.cfi_endproc
                                        ## -- End function
	.p2align	4, 0x90         ## -- Begin function _ZNSt3__113basic_ostreamIcNS_11char_traitsIcEEElsEPFRS3_S4_E
__ZNSt3__113basic_ostreamIcNS_11char_traitsIcEEElsEPFRS3_S4_E: ## @_ZNSt3__113basic_ostreamIcNS_11char_traitsIcEEElsEPFRS3_S4_E
Lfunc_begin2:
	.loc	17 196 0 is_stmt 1      ## /Applications/Xcode.app/Contents/Developer/Toolchains/XcodeDefault.xctoolchain/usr/bin/../include/c++/v1/ostream:196:0
	.cfi_startproc
## %bb.0:
	pushq	%rbp
	.cfi_def_cfa_offset 16
	.cfi_offset %rbp, -16
	movq	%rsp, %rbp
	.cfi_def_cfa_register %rbp
	subq	$16, %rsp
	movq	%rdi, -8(%rbp)
	movq	%rsi, -16(%rbp)
	movq	-8(%rbp), %rdi
Ltmp5:
	.loc	17 196 14 prologue_end  ## /Applications/Xcode.app/Contents/Developer/Toolchains/XcodeDefault.xctoolchain/usr/bin/../include/c++/v1/ostream:196:14
	callq	*-16(%rbp)
	.loc	17 196 7 is_stmt 0      ## /Applications/Xcode.app/Contents/Developer/Toolchains/XcodeDefault.xctoolchain/usr/bin/../include/c++/v1/ostream:196:7
	addq	$16, %rsp
	popq	%rbp
	retq
Ltmp6:
Lfunc_end2:
	.cfi_endproc
                                        ## -- End function
	.p2align	4, 0x90         ## -- Begin function _ZNSt3__1L4endlIcNS_11char_traitsIcEEEERNS_13basic_ostreamIT_T0_EES7_
__ZNSt3__1L4endlIcNS_11char_traitsIcEEEERNS_13basic_ostreamIT_T0_EES7_: ## @_ZNSt3__1L4endlIcNS_11char_traitsIcEEEERNS_13basic_ostreamIT_T0_EES7_
Lfunc_begin3:
	.loc	17 1001 0 is_stmt 1     ## /Applications/Xcode.app/Contents/Developer/Toolchains/XcodeDefault.xctoolchain/usr/bin/../include/c++/v1/ostream:1001:0
	.cfi_startproc
## %bb.0:
	pushq	%rbp
	.cfi_def_cfa_offset 16
	.cfi_offset %rbp, -16
	movq	%rsp, %rbp
	.cfi_def_cfa_register %rbp
	subq	$32, %rsp
	movq	%rdi, -8(%rbp)
Ltmp7:
	.loc	17 1002 5 prologue_end  ## /Applications/Xcode.app/Contents/Developer/Toolchains/XcodeDefault.xctoolchain/usr/bin/../include/c++/v1/ostream:1002:5
	movq	-8(%rbp), %rdi
	.loc	17 1002 14 is_stmt 0    ## /Applications/Xcode.app/Contents/Developer/Toolchains/XcodeDefault.xctoolchain/usr/bin/../include/c++/v1/ostream:1002:14
	movq	-8(%rbp), %rax
	movq	(%rax), %rcx
	movq	-24(%rcx), %rcx
	addq	%rcx, %rax
	movq	%rdi, -16(%rbp)         ## 8-byte Spill
	.loc	17 1002 19              ## /Applications/Xcode.app/Contents/Developer/Toolchains/XcodeDefault.xctoolchain/usr/bin/../include/c++/v1/ostream:1002:19
	movq	%rax, %rdi
	movl	$10, %esi
	callq	__ZNKSt3__19basic_iosIcNS_11char_traitsIcEEE5widenEc
	movq	-16(%rbp), %rdi         ## 8-byte Reload
	.loc	17 1002 10              ## /Applications/Xcode.app/Contents/Developer/Toolchains/XcodeDefault.xctoolchain/usr/bin/../include/c++/v1/ostream:1002:10
	movsbl	%al, %esi
	callq	__ZNSt3__113basic_ostreamIcNS_11char_traitsIcEEE3putEc
	.loc	17 1003 5 is_stmt 1     ## /Applications/Xcode.app/Contents/Developer/Toolchains/XcodeDefault.xctoolchain/usr/bin/../include/c++/v1/ostream:1003:5
	movq	-8(%rbp), %rdi
	movq	%rax, -24(%rbp)         ## 8-byte Spill
	.loc	17 1003 10 is_stmt 0    ## /Applications/Xcode.app/Contents/Developer/Toolchains/XcodeDefault.xctoolchain/usr/bin/../include/c++/v1/ostream:1003:10
	callq	__ZNSt3__113basic_ostreamIcNS_11char_traitsIcEEE5flushEv
	.loc	17 1004 12 is_stmt 1    ## /Applications/Xcode.app/Contents/Developer/Toolchains/XcodeDefault.xctoolchain/usr/bin/../include/c++/v1/ostream:1004:12
	movq	-8(%rbp), %rcx
	movq	%rax, -32(%rbp)         ## 8-byte Spill
	.loc	17 1004 5 is_stmt 0     ## /Applications/Xcode.app/Contents/Developer/Toolchains/XcodeDefault.xctoolchain/usr/bin/../include/c++/v1/ostream:1004:5
	movq	%rcx, %rax
	addq	$32, %rsp
	popq	%rbp
	retq
Ltmp8:
Lfunc_end3:
	.cfi_endproc
                                        ## -- End function
	.globl	__ZN8MyStringC1Ev       ## -- Begin function _ZN8MyStringC1Ev
	.p2align	4, 0x90
__ZN8MyStringC1Ev:                      ## @_ZN8MyStringC1Ev
Lfunc_begin4:
	.loc	62 38 0 is_stmt 1       ## perfect_forwarding.cpp:38:0
	.cfi_startproc
## %bb.0:
	pushq	%rbp
	.cfi_def_cfa_offset 16
	.cfi_offset %rbp, -16
	movq	%rsp, %rbp
	.cfi_def_cfa_register %rbp
	subq	$16, %rsp
	movq	%rdi, -8(%rbp)
	movq	-8(%rbp), %rdi
Ltmp9:
	.loc	62 38 22 prologue_end   ## perfect_forwarding.cpp:38:22
	callq	__ZN8MyStringC2Ev
	.loc	62 43 1                 ## perfect_forwarding.cpp:43:1
	addq	$16, %rsp
	popq	%rbp
	retq
Ltmp10:
Lfunc_end4:
	.cfi_endproc
                                        ## -- End function
	.globl	__ZN8MyStringC2EPKc     ## -- Begin function _ZN8MyStringC2EPKc
	.p2align	4, 0x90
__ZN8MyStringC2EPKc:                    ## @_ZN8MyStringC2EPKc
Lfunc_begin5:
	.loc	62 44 0                 ## perfect_forwarding.cpp:44:0
	.cfi_startproc
## %bb.0:
	pushq	%rbp
	.cfi_def_cfa_offset 16
	.cfi_offset %rbp, -16
	movq	%rsp, %rbp
	.cfi_def_cfa_register %rbp
	subq	$48, %rsp
	movq	__ZNSt3__14coutE@GOTPCREL(%rip), %rax
	movq	%rdi, -8(%rbp)
	movq	%rsi, -16(%rbp)
	movq	-8(%rbp), %rsi
Ltmp11:
	.loc	62 45 15 prologue_end   ## perfect_forwarding.cpp:45:15
	movq	%rax, %rdi
	leaq	L_.str.1(%rip), %rax
	movq	%rsi, -32(%rbp)         ## 8-byte Spill
	movq	%rax, %rsi
	callq	__ZNSt3__1lsINS_11char_traitsIcEEEERNS_13basic_ostreamIcT_EES6_PKc
	.loc	62 45 41 is_stmt 0      ## perfect_forwarding.cpp:45:41
	movq	%rax, %rdi
	leaq	__ZNSt3__1L4endlIcNS_11char_traitsIcEEEERNS_13basic_ostreamIT_T0_EES7_(%rip), %rsi
	callq	__ZNSt3__113basic_ostreamIcNS_11char_traitsIcEEElsEPFRS3_S4_E
	.loc	62 46 28 is_stmt 1      ## perfect_forwarding.cpp:46:28
	movq	-16(%rbp), %rdi
	movq	%rax, -40(%rbp)         ## 8-byte Spill
	.loc	62 46 21 is_stmt 0      ## perfect_forwarding.cpp:46:21
	callq	_strlen
	movl	%eax, %ecx
	movq	-32(%rbp), %rax         ## 8-byte Reload
	.loc	62 46 19                ## perfect_forwarding.cpp:46:19
	movl	%ecx, 8(%rax)
	.loc	62 47 34 is_stmt 1      ## perfect_forwarding.cpp:47:34
	movq	-16(%rbp), %rdi
	.loc	62 47 27 is_stmt 0      ## perfect_forwarding.cpp:47:27
	callq	_strlen
	.loc	62 47 25                ## perfect_forwarding.cpp:47:25
	shlq	$1, %rax
	.loc	62 47 23                ## perfect_forwarding.cpp:47:23
	movl	%eax, %ecx
	movq	-32(%rbp), %rax         ## 8-byte Reload
	.loc	62 47 21                ## perfect_forwarding.cpp:47:21
	movl	%ecx, 12(%rax)
	.loc	62 48 31 is_stmt 1      ## perfect_forwarding.cpp:48:31
	movslq	8(%rax), %rdi
	.loc	62 48 22 is_stmt 0      ## perfect_forwarding.cpp:48:22
	callq	__Znam
	movq	-32(%rbp), %rsi         ## 8-byte Reload
	.loc	62 48 20                ## perfect_forwarding.cpp:48:20
	movq	%rax, (%rsi)
Ltmp12:
	.loc	62 49 14 is_stmt 1      ## perfect_forwarding.cpp:49:14
	movl	$0, -20(%rbp)
LBB5_1:                                 ## =>This Inner Loop Header: Depth=1
Ltmp13:
	.loc	62 49 21 is_stmt 0      ## perfect_forwarding.cpp:49:21
	movl	-20(%rbp), %eax
	movq	-32(%rbp), %rcx         ## 8-byte Reload
	.loc	62 49 23                ## perfect_forwarding.cpp:49:23
	cmpl	8(%rcx), %eax
Ltmp14:
	.loc	62 49 5                 ## perfect_forwarding.cpp:49:5
	jge	LBB5_4
## %bb.2:                               ##   in Loop: Header=BB5_1 Depth=1
Ltmp15:
	.loc	62 50 29 is_stmt 1      ## perfect_forwarding.cpp:50:29
	movq	-16(%rbp), %rax
	movslq	-20(%rbp), %rcx
	movb	(%rax,%rcx), %dl
	movq	-32(%rbp), %rax         ## 8-byte Reload
	.loc	62 50 9 is_stmt 0       ## perfect_forwarding.cpp:50:9
	movq	(%rax), %rcx
	movslq	-20(%rbp), %rsi
	.loc	62 50 27                ## perfect_forwarding.cpp:50:27
	movb	%dl, (%rcx,%rsi)
Ltmp16:
## %bb.3:                               ##   in Loop: Header=BB5_1 Depth=1
	.loc	62 49 41 is_stmt 1      ## perfect_forwarding.cpp:49:41
	movl	-20(%rbp), %eax
	addl	$1, %eax
	movl	%eax, -20(%rbp)
	.loc	62 49 5 is_stmt 0       ## perfect_forwarding.cpp:49:5
	jmp	LBB5_1
Ltmp17:
LBB5_4:
	.loc	62 52 1 is_stmt 1       ## perfect_forwarding.cpp:52:1
	addq	$48, %rsp
	popq	%rbp
	retq
Ltmp18:
Lfunc_end5:
	.cfi_endproc
                                        ## -- End function
	.globl	__ZN8MyStringC1EPKc     ## -- Begin function _ZN8MyStringC1EPKc
	.p2align	4, 0x90
__ZN8MyStringC1EPKc:                    ## @_ZN8MyStringC1EPKc
Lfunc_begin6:
	.loc	62 44 0                 ## perfect_forwarding.cpp:44:0
	.cfi_startproc
## %bb.0:
	pushq	%rbp
	.cfi_def_cfa_offset 16
	.cfi_offset %rbp, -16
	movq	%rsp, %rbp
	.cfi_def_cfa_register %rbp
	subq	$16, %rsp
	movq	%rdi, -8(%rbp)
	movq	%rsi, -16(%rbp)
	movq	-8(%rbp), %rdi
Ltmp19:
	.loc	62 44 37 prologue_end   ## perfect_forwarding.cpp:44:37
	movq	-16(%rbp), %rsi
	callq	__ZN8MyStringC2EPKc
	.loc	62 52 1                 ## perfect_forwarding.cpp:52:1
	addq	$16, %rsp
	popq	%rbp
	retq
Ltmp20:
Lfunc_end6:
	.cfi_endproc
                                        ## -- End function
	.globl	__ZN8MyStringC2ERKS_    ## -- Begin function _ZN8MyStringC2ERKS_
	.p2align	4, 0x90
__ZN8MyStringC2ERKS_:                   ## @_ZN8MyStringC2ERKS_
Lfunc_begin7:
	.loc	62 53 0                 ## perfect_forwarding.cpp:53:0
	.cfi_startproc
## %bb.0:
	pushq	%rbp
	.cfi_def_cfa_offset 16
	.cfi_offset %rbp, -16
	movq	%rsp, %rbp
	.cfi_def_cfa_register %rbp
	subq	$48, %rsp
	movq	__ZNSt3__14coutE@GOTPCREL(%rip), %rax
	movq	%rdi, -8(%rbp)
	movq	%rsi, -16(%rbp)
	movq	-8(%rbp), %rsi
Ltmp21:
	.loc	62 54 15 prologue_end   ## perfect_forwarding.cpp:54:15
	movq	%rax, %rdi
	leaq	L_.str.2(%rip), %rax
	movq	%rsi, -32(%rbp)         ## 8-byte Spill
	movq	%rax, %rsi
	callq	__ZNSt3__1lsINS_11char_traitsIcEEEERNS_13basic_ostreamIcT_EES6_PKc
	.loc	62 54 38 is_stmt 0      ## perfect_forwarding.cpp:54:38
	movq	%rax, %rdi
	leaq	__ZNSt3__1L4endlIcNS_11char_traitsIcEEEERNS_13basic_ostreamIT_T0_EES7_(%rip), %rsi
	callq	__ZNSt3__113basic_ostreamIcNS_11char_traitsIcEEElsEPFRS3_S4_E
	.loc	62 55 21 is_stmt 1      ## perfect_forwarding.cpp:55:21
	movq	-16(%rbp), %rsi
	.loc	62 55 30 is_stmt 0      ## perfect_forwarding.cpp:55:30
	movl	8(%rsi), %ecx
	movq	-32(%rbp), %rsi         ## 8-byte Reload
	.loc	62 55 19                ## perfect_forwarding.cpp:55:19
	movl	%ecx, 8(%rsi)
	.loc	62 56 23 is_stmt 1      ## perfect_forwarding.cpp:56:23
	movq	-16(%rbp), %rdi
	.loc	62 56 32 is_stmt 0      ## perfect_forwarding.cpp:56:32
	movl	12(%rdi), %ecx
	.loc	62 56 21                ## perfect_forwarding.cpp:56:21
	movl	%ecx, 12(%rsi)
	.loc	62 57 31 is_stmt 1      ## perfect_forwarding.cpp:57:31
	movslq	8(%rsi), %rdi
	movq	%rax, -40(%rbp)         ## 8-byte Spill
	.loc	62 57 22 is_stmt 0      ## perfect_forwarding.cpp:57:22
	callq	__Znam
	movq	-32(%rbp), %rsi         ## 8-byte Reload
	.loc	62 57 20                ## perfect_forwarding.cpp:57:20
	movq	%rax, (%rsi)
Ltmp22:
	.loc	62 58 14 is_stmt 1      ## perfect_forwarding.cpp:58:14
	movl	$0, -20(%rbp)
LBB7_1:                                 ## =>This Inner Loop Header: Depth=1
Ltmp23:
	.loc	62 58 21 is_stmt 0      ## perfect_forwarding.cpp:58:21
	movl	-20(%rbp), %eax
	movq	-32(%rbp), %rcx         ## 8-byte Reload
	.loc	62 58 23                ## perfect_forwarding.cpp:58:23
	cmpl	8(%rcx), %eax
Ltmp24:
	.loc	62 58 5                 ## perfect_forwarding.cpp:58:5
	jge	LBB7_4
## %bb.2:                               ##   in Loop: Header=BB7_1 Depth=1
Ltmp25:
	.loc	62 59 29 is_stmt 1      ## perfect_forwarding.cpp:59:29
	movq	-16(%rbp), %rax
	.loc	62 59 38 is_stmt 0      ## perfect_forwarding.cpp:59:38
	movq	(%rax), %rax
	.loc	62 59 29                ## perfect_forwarding.cpp:59:29
	movslq	-20(%rbp), %rcx
	movb	(%rax,%rcx), %dl
	movq	-32(%rbp), %rax         ## 8-byte Reload
	.loc	62 59 9                 ## perfect_forwarding.cpp:59:9
	movq	(%rax), %rcx
	movslq	-20(%rbp), %rsi
	.loc	62 59 27                ## perfect_forwarding.cpp:59:27
	movb	%dl, (%rcx,%rsi)
Ltmp26:
## %bb.3:                               ##   in Loop: Header=BB7_1 Depth=1
	.loc	62 58 41 is_stmt 1      ## perfect_forwarding.cpp:58:41
	movl	-20(%rbp), %eax
	addl	$1, %eax
	movl	%eax, -20(%rbp)
	.loc	62 58 5 is_stmt 0       ## perfect_forwarding.cpp:58:5
	jmp	LBB7_1
Ltmp27:
LBB7_4:
	.loc	62 61 1 is_stmt 1       ## perfect_forwarding.cpp:61:1
	addq	$48, %rsp
	popq	%rbp
	retq
Ltmp28:
Lfunc_end7:
	.cfi_endproc
                                        ## -- End function
	.globl	__ZN8MyStringC1ERKS_    ## -- Begin function _ZN8MyStringC1ERKS_
	.p2align	4, 0x90
__ZN8MyStringC1ERKS_:                   ## @_ZN8MyStringC1ERKS_
Lfunc_begin8:
	.loc	62 53 0                 ## perfect_forwarding.cpp:53:0
	.cfi_startproc
## %bb.0:
	pushq	%rbp
	.cfi_def_cfa_offset 16
	.cfi_offset %rbp, -16
	movq	%rsp, %rbp
	.cfi_def_cfa_register %rbp
	subq	$16, %rsp
	movq	%rdi, -8(%rbp)
	movq	%rsi, -16(%rbp)
	movq	-8(%rbp), %rdi
Ltmp29:
	.loc	62 53 46 prologue_end   ## perfect_forwarding.cpp:53:46
	movq	-16(%rbp), %rsi
	callq	__ZN8MyStringC2ERKS_
	.loc	62 61 1                 ## perfect_forwarding.cpp:61:1
	addq	$16, %rsp
	popq	%rbp
	retq
Ltmp30:
Lfunc_end8:
	.cfi_endproc
                                        ## -- End function
	.globl	__ZN8MyStringC2EOS_     ## -- Begin function _ZN8MyStringC2EOS_
	.p2align	4, 0x90
__ZN8MyStringC2EOS_:                    ## @_ZN8MyStringC2EOS_
Lfunc_begin9:
	.loc	62 62 0                 ## perfect_forwarding.cpp:62:0
	.cfi_startproc
	.cfi_personality 155, ___gxx_personality_v0
	.cfi_lsda 16, Lexception0
## %bb.0:
	pushq	%rbp
	.cfi_def_cfa_offset 16
	.cfi_offset %rbp, -16
	movq	%rsp, %rbp
	.cfi_def_cfa_register %rbp
	subq	$48, %rsp
	movq	%rdi, -8(%rbp)
	movq	%rsi, -16(%rbp)
	movq	-8(%rbp), %rsi
Ltmp31:
Ltmp36:
	.loc	62 63 15 prologue_end   ## perfect_forwarding.cpp:63:15
	movq	__ZNSt3__14coutE@GOTPCREL(%rip), %rdi
	leaq	L_.str.3(%rip), %rax
	movq	%rsi, -24(%rbp)         ## 8-byte Spill
	movq	%rax, %rsi
	callq	__ZNSt3__1lsINS_11char_traitsIcEEEERNS_13basic_ostreamIcT_EES6_PKc
Ltmp32:
	movq	%rax, -32(%rbp)         ## 8-byte Spill
	jmp	LBB9_1
LBB9_1:
Ltmp33:
	.loc	62 63 39 is_stmt 0      ## perfect_forwarding.cpp:63:39
	leaq	__ZNSt3__1L4endlIcNS_11char_traitsIcEEEERNS_13basic_ostreamIT_T0_EES7_(%rip), %rsi
	movq	-32(%rbp), %rdi         ## 8-byte Reload
	callq	__ZNSt3__113basic_ostreamIcNS_11char_traitsIcEEElsEPFRS3_S4_E
Ltmp34:
	movq	%rax, -40(%rbp)         ## 8-byte Spill
	jmp	LBB9_2
LBB9_2:
	.loc	62 64 21 is_stmt 1      ## perfect_forwarding.cpp:64:21
	movq	-16(%rbp), %rax
	.loc	62 64 25 is_stmt 0      ## perfect_forwarding.cpp:64:25
	movl	8(%rax), %ecx
	movq	-24(%rbp), %rax         ## 8-byte Reload
	.loc	62 64 19                ## perfect_forwarding.cpp:64:19
	movl	%ecx, 8(%rax)
	.loc	62 65 23 is_stmt 1      ## perfect_forwarding.cpp:65:23
	movq	-16(%rbp), %rdx
	.loc	62 65 27 is_stmt 0      ## perfect_forwarding.cpp:65:27
	movl	12(%rdx), %ecx
	.loc	62 65 21                ## perfect_forwarding.cpp:65:21
	movl	%ecx, 12(%rax)
	.loc	62 66 22 is_stmt 1      ## perfect_forwarding.cpp:66:22
	movq	-16(%rbp), %rdx
	.loc	62 66 26 is_stmt 0      ## perfect_forwarding.cpp:66:26
	movq	(%rdx), %rdx
	.loc	62 66 20                ## perfect_forwarding.cpp:66:20
	movq	%rdx, (%rax)
	.loc	62 68 5 is_stmt 1       ## perfect_forwarding.cpp:68:5
	movq	-16(%rbp), %rdx
	.loc	62 68 24 is_stmt 0      ## perfect_forwarding.cpp:68:24
	movq	$0, (%rdx)
Ltmp37:
	.loc	62 69 1 is_stmt 1       ## perfect_forwarding.cpp:69:1
	addq	$48, %rsp
	popq	%rbp
	retq
LBB9_3:
Ltmp35:
Ltmp38:
	.loc	62 63 15                ## perfect_forwarding.cpp:63:15
	movq	%rax, %rdi
	movq	%rdx, -48(%rbp)         ## 8-byte Spill
	callq	___clang_call_terminate
Ltmp39:
Lfunc_end9:
	.cfi_endproc
	.section	__TEXT,__gcc_except_tab
	.p2align	2
GCC_except_table9:
Lexception0:
	.byte	255                     ## @LPStart Encoding = omit
	.byte	155                     ## @TType Encoding = indirect pcrel sdata4
	.uleb128 Lttbase0-Lttbaseref0
Lttbaseref0:
	.byte	1                       ## Call site Encoding = uleb128
	.uleb128 Lcst_end0-Lcst_begin0
Lcst_begin0:
	.uleb128 Ltmp31-Lfunc_begin9    ## >> Call Site 1 <<
	.uleb128 Ltmp34-Ltmp31          ##   Call between Ltmp31 and Ltmp34
	.uleb128 Ltmp35-Lfunc_begin9    ##     jumps to Ltmp35
	.byte	1                       ##   On action: 1
Lcst_end0:
	.byte	1                       ## >> Action Record 1 <<
                                        ##   Catch TypeInfo 1
	.byte	0                       ##   No further actions
	.p2align	2
                                        ## >> Catch TypeInfos <<
	.long	0                       ## TypeInfo 1
Lttbase0:
	.p2align	2
                                        ## -- End function
	.section	__TEXT,__text,regular,pure_instructions
	.private_extern	___clang_call_terminate ## -- Begin function __clang_call_terminate
	.globl	___clang_call_terminate
	.weak_definition	___clang_call_terminate
	.p2align	4, 0x90
___clang_call_terminate:                ## @__clang_call_terminate
Lfunc_begin10:
	.cfi_startproc
## %bb.0:
	pushq	%rax
	.cfi_def_cfa_offset 16
	callq	___cxa_begin_catch
	movq	%rax, (%rsp)            ## 8-byte Spill
	callq	__ZSt9terminatev
Lfunc_end10:
	.cfi_endproc
                                        ## -- End function
	.globl	__ZN8MyStringC1EOS_     ## -- Begin function _ZN8MyStringC1EOS_
	.p2align	4, 0x90
__ZN8MyStringC1EOS_:                    ## @_ZN8MyStringC1EOS_
Lfunc_begin11:
	.loc	62 62 0                 ## perfect_forwarding.cpp:62:0
	.cfi_startproc
## %bb.0:
	pushq	%rbp
	.cfi_def_cfa_offset 16
	.cfi_offset %rbp, -16
	movq	%rsp, %rbp
	.cfi_def_cfa_register %rbp
	subq	$16, %rsp
	movq	%rdi, -8(%rbp)
	movq	%rsi, -16(%rbp)
	movq	-8(%rbp), %rdi
Ltmp40:
	.loc	62 62 45 prologue_end   ## perfect_forwarding.cpp:62:45
	movq	-16(%rbp), %rsi
	callq	__ZN8MyStringC2EOS_
	.loc	62 69 1                 ## perfect_forwarding.cpp:69:1
	addq	$16, %rsp
	popq	%rbp
	retq
Ltmp41:
Lfunc_end11:
	.cfi_endproc
                                        ## -- End function
	.globl	__ZN8MyStringD2Ev       ## -- Begin function _ZN8MyStringD2Ev
	.p2align	4, 0x90
__ZN8MyStringD2Ev:                      ## @_ZN8MyStringD2Ev
Lfunc_begin12:
	.loc	62 70 0                 ## perfect_forwarding.cpp:70:0
	.cfi_startproc
## %bb.0:
	pushq	%rbp
	.cfi_def_cfa_offset 16
	.cfi_offset %rbp, -16
	movq	%rsp, %rbp
	.cfi_def_cfa_register %rbp
	subq	$32, %rsp
	movq	%rdi, -8(%rbp)
	movq	-8(%rbp), %rdi
Ltmp42:
	.loc	62 72 9 prologue_end    ## perfect_forwarding.cpp:72:9
	cmpq	$0, (%rdi)
	movq	%rdi, -16(%rbp)         ## 8-byte Spill
Ltmp43:
	.loc	62 72 9 is_stmt 0       ## perfect_forwarding.cpp:72:9
	je	LBB12_4
## %bb.1:
	.loc	62 0 9                  ## perfect_forwarding.cpp:0:9
	movq	-16(%rbp), %rax         ## 8-byte Reload
Ltmp44:
	.loc	62 72 34                ## perfect_forwarding.cpp:72:34
	movq	(%rax), %rcx
	.loc	62 72 25                ## perfect_forwarding.cpp:72:25
	cmpq	$0, %rcx
	movq	%rcx, -24(%rbp)         ## 8-byte Spill
	je	LBB12_3
## %bb.2:
	.loc	62 0 25                 ## perfect_forwarding.cpp:0:25
	movq	-24(%rbp), %rdi         ## 8-byte Reload
	.loc	62 72 25                ## perfect_forwarding.cpp:72:25
	callq	__ZdaPv
LBB12_3:
	jmp	LBB12_4
Ltmp45:
LBB12_4:
	.loc	62 73 1 is_stmt 1       ## perfect_forwarding.cpp:73:1
	addq	$32, %rsp
	popq	%rbp
	retq
Ltmp46:
Lfunc_end12:
	.cfi_endproc
                                        ## -- End function
	.globl	__ZN8MyStringD1Ev       ## -- Begin function _ZN8MyStringD1Ev
	.p2align	4, 0x90
__ZN8MyStringD1Ev:                      ## @_ZN8MyStringD1Ev
Lfunc_begin13:
	.loc	62 70 0                 ## perfect_forwarding.cpp:70:0
	.cfi_startproc
## %bb.0:
	pushq	%rbp
	.cfi_def_cfa_offset 16
	.cfi_offset %rbp, -16
	movq	%rsp, %rbp
	.cfi_def_cfa_register %rbp
	subq	$16, %rsp
	movq	%rdi, -8(%rbp)
	movq	-8(%rbp), %rdi
Ltmp47:
	.loc	62 70 23 prologue_end   ## perfect_forwarding.cpp:70:23
	callq	__ZN8MyStringD2Ev
	.loc	62 73 1                 ## perfect_forwarding.cpp:73:1
	addq	$16, %rsp
	popq	%rbp
	retq
Ltmp48:
Lfunc_end13:
	.cfi_endproc
                                        ## -- End function
	.globl	__ZN8MyString7reserveEi ## -- Begin function _ZN8MyString7reserveEi
	.p2align	4, 0x90
__ZN8MyString7reserveEi:                ## @_ZN8MyString7reserveEi
Lfunc_begin14:
	.loc	62 74 0                 ## perfect_forwarding.cpp:74:0
	.cfi_startproc
## %bb.0:
	pushq	%rbp
	.cfi_def_cfa_offset 16
	.cfi_offset %rbp, -16
	movq	%rsp, %rbp
	.cfi_def_cfa_register %rbp
	subq	$48, %rsp
	movq	%rdi, -8(%rbp)
	movl	%esi, -12(%rbp)
	movq	-8(%rbp), %rdi
Ltmp49:
	.loc	62 75 9 prologue_end    ## perfect_forwarding.cpp:75:9
	movl	-12(%rbp), %esi
	.loc	62 75 14 is_stmt 0      ## perfect_forwarding.cpp:75:14
	cmpl	12(%rdi), %esi
	movq	%rdi, -40(%rbp)         ## 8-byte Spill
Ltmp50:
	.loc	62 75 9                 ## perfect_forwarding.cpp:75:9
	jle	LBB14_10
## %bb.1:
	.loc	62 0 9                  ## perfect_forwarding.cpp:0:9
	movq	-40(%rbp), %rax         ## 8-byte Reload
Ltmp51:
	.loc	62 76 30 is_stmt 1      ## perfect_forwarding.cpp:76:30
	movq	(%rax), %rcx
	.loc	62 76 15 is_stmt 0      ## perfect_forwarding.cpp:76:15
	movq	%rcx, -24(%rbp)
	.loc	62 77 35 is_stmt 1      ## perfect_forwarding.cpp:77:35
	movslq	-12(%rbp), %rdi
	.loc	62 77 26 is_stmt 0      ## perfect_forwarding.cpp:77:26
	callq	__Znam
	movq	-40(%rbp), %rcx         ## 8-byte Reload
	.loc	62 77 24                ## perfect_forwarding.cpp:77:24
	movq	%rax, (%rcx)
	.loc	62 78 27 is_stmt 1      ## perfect_forwarding.cpp:78:27
	movl	-12(%rbp), %edx
	.loc	62 78 25 is_stmt 0      ## perfect_forwarding.cpp:78:25
	movl	%edx, 12(%rcx)
Ltmp52:
	.loc	62 80 18 is_stmt 1      ## perfect_forwarding.cpp:80:18
	movl	$0, -28(%rbp)
LBB14_2:                                ## =>This Inner Loop Header: Depth=1
Ltmp53:
	.loc	62 80 25 is_stmt 0      ## perfect_forwarding.cpp:80:25
	movl	-28(%rbp), %eax
	movq	-40(%rbp), %rcx         ## 8-byte Reload
	.loc	62 80 27                ## perfect_forwarding.cpp:80:27
	cmpl	8(%rcx), %eax
Ltmp54:
	.loc	62 80 9                 ## perfect_forwarding.cpp:80:9
	jge	LBB14_5
## %bb.3:                               ##   in Loop: Header=BB14_2 Depth=1
Ltmp55:
	.loc	62 81 33 is_stmt 1      ## perfect_forwarding.cpp:81:33
	movq	-24(%rbp), %rax
	movslq	-28(%rbp), %rcx
	movb	(%rax,%rcx), %dl
	movq	-40(%rbp), %rax         ## 8-byte Reload
	.loc	62 81 13 is_stmt 0      ## perfect_forwarding.cpp:81:13
	movq	(%rax), %rcx
	movslq	-28(%rbp), %rsi
	.loc	62 81 31                ## perfect_forwarding.cpp:81:31
	movb	%dl, (%rcx,%rsi)
Ltmp56:
## %bb.4:                               ##   in Loop: Header=BB14_2 Depth=1
	.loc	62 80 45 is_stmt 1      ## perfect_forwarding.cpp:80:45
	movl	-28(%rbp), %eax
	addl	$1, %eax
	movl	%eax, -28(%rbp)
	.loc	62 80 9 is_stmt 0       ## perfect_forwarding.cpp:80:9
	jmp	LBB14_2
Ltmp57:
LBB14_5:
	.loc	62 83 26 is_stmt 1      ## perfect_forwarding.cpp:83:26
	cmpq	$0, -24(%rbp)
Ltmp58:
	.loc	62 83 13 is_stmt 0      ## perfect_forwarding.cpp:83:13
	je	LBB14_9
## %bb.6:
Ltmp59:
	.loc	62 83 47                ## perfect_forwarding.cpp:83:47
	movq	-24(%rbp), %rax
	.loc	62 83 38                ## perfect_forwarding.cpp:83:38
	cmpq	$0, %rax
	movq	%rax, -48(%rbp)         ## 8-byte Spill
	je	LBB14_8
## %bb.7:
	.loc	62 0 38                 ## perfect_forwarding.cpp:0:38
	movq	-48(%rbp), %rdi         ## 8-byte Reload
	.loc	62 83 38                ## perfect_forwarding.cpp:83:38
	callq	__ZdaPv
LBB14_8:
	jmp	LBB14_9
Ltmp60:
LBB14_9:
	.loc	62 84 5 is_stmt 1       ## perfect_forwarding.cpp:84:5
	jmp	LBB14_10
Ltmp61:
LBB14_10:
	.loc	62 85 1                 ## perfect_forwarding.cpp:85:1
	addq	$48, %rsp
	popq	%rbp
	retq
Ltmp62:
Lfunc_end14:
	.cfi_endproc
                                        ## -- End function
	.globl	__ZN8MyStringplERKS_    ## -- Begin function _ZN8MyStringplERKS_
	.p2align	4, 0x90
__ZN8MyStringplERKS_:                   ## @_ZN8MyStringplERKS_
Lfunc_begin15:
	.loc	62 86 0                 ## perfect_forwarding.cpp:86:0
	.cfi_startproc
	.cfi_personality 155, ___gxx_personality_v0
	.cfi_lsda 16, Lexception1
## %bb.0:
	pushq	%rbp
	.cfi_def_cfa_offset 16
	.cfi_offset %rbp, -16
	movq	%rsp, %rbp
	.cfi_def_cfa_register %rbp
	subq	$80, %rsp
Ltmp66:
	##DEBUG_VALUE: operator+:str <- [$rdi+0]
	movq	%rdi, %rax
	movq	%rsi, -8(%rbp)
	movq	%rdx, -16(%rbp)
	movq	-8(%rbp), %rdx
Ltmp67:
	.loc	62 87 5 prologue_end    ## perfect_forwarding.cpp:87:5
	movb	$0, -17(%rbp)
	movq	%rdi, -56(%rbp)         ## 8-byte Spill
Ltmp68:
	##DEBUG_VALUE: operator+:str <- [DW_OP_constu 56, DW_OP_minus, DW_OP_deref] [$rbp+0]
	.loc	62 0 5 is_stmt 0        ## perfect_forwarding.cpp:0:5
	movq	%rax, -64(%rbp)         ## 8-byte Spill
	movq	%rdx, -72(%rbp)         ## 8-byte Spill
	.loc	62 87 14                ## perfect_forwarding.cpp:87:14
	callq	__ZN8MyStringC1Ev
	movq	-72(%rbp), %rax         ## 8-byte Reload
	.loc	62 88 17 is_stmt 1      ## perfect_forwarding.cpp:88:17
	movl	12(%rax), %ecx
	.loc	62 88 35 is_stmt 0      ## perfect_forwarding.cpp:88:35
	movq	-16(%rbp), %rdx
	.loc	62 88 37                ## perfect_forwarding.cpp:88:37
	movl	12(%rdx), %r8d
	.loc	62 88 33                ## perfect_forwarding.cpp:88:33
	addl	%r8d, %ecx
Ltmp63:
	movq	-56(%rbp), %rdi         ## 8-byte Reload
	.loc	62 88 9                 ## perfect_forwarding.cpp:88:9
	movl	%ecx, %esi
	callq	__ZN8MyString7reserveEi
Ltmp64:
	jmp	LBB15_1
LBB15_1:
	##DEBUG_VALUE: operator+:str <- [DW_OP_constu 56, DW_OP_minus, DW_OP_deref] [$rbp+0]
Ltmp69:
	.loc	62 89 14 is_stmt 1      ## perfect_forwarding.cpp:89:14
	movl	$0, -40(%rbp)
LBB15_2:                                ## =>This Inner Loop Header: Depth=1
	##DEBUG_VALUE: operator+:str <- [DW_OP_constu 56, DW_OP_minus, DW_OP_deref] [$rbp+0]
Ltmp70:
	.loc	62 89 21 is_stmt 0      ## perfect_forwarding.cpp:89:21
	movl	-40(%rbp), %eax
	movq	-72(%rbp), %rcx         ## 8-byte Reload
	.loc	62 89 23                ## perfect_forwarding.cpp:89:23
	cmpl	8(%rcx), %eax
Ltmp71:
	.loc	62 89 5                 ## perfect_forwarding.cpp:89:5
	jge	LBB15_6
## %bb.3:                               ##   in Loop: Header=BB15_2 Depth=1
	##DEBUG_VALUE: operator+:str <- [DW_OP_constu 56, DW_OP_minus, DW_OP_deref] [$rbp+0]
	.loc	62 0 5                  ## perfect_forwarding.cpp:0:5
	movq	-72(%rbp), %rax         ## 8-byte Reload
Ltmp72:
	.loc	62 90 33 is_stmt 1      ## perfect_forwarding.cpp:90:33
	movq	(%rax), %rcx
	movslq	-40(%rbp), %rdx
	movb	(%rcx,%rdx), %sil
	movq	-56(%rbp), %rcx         ## 8-byte Reload
	.loc	62 90 13 is_stmt 0      ## perfect_forwarding.cpp:90:13
	movq	(%rcx), %rdx
	.loc	62 90 9                 ## perfect_forwarding.cpp:90:9
	movslq	-40(%rbp), %rdi
	.loc	62 90 31                ## perfect_forwarding.cpp:90:31
	movb	%sil, (%rdx,%rdi)
## %bb.4:                               ##   in Loop: Header=BB15_2 Depth=1
	##DEBUG_VALUE: operator+:str <- [DW_OP_constu 56, DW_OP_minus, DW_OP_deref] [$rbp+0]
	.loc	62 89 41 is_stmt 1      ## perfect_forwarding.cpp:89:41
	movl	-40(%rbp), %eax
	addl	$1, %eax
	movl	%eax, -40(%rbp)
	.loc	62 89 5 is_stmt 0       ## perfect_forwarding.cpp:89:5
	jmp	LBB15_2
Ltmp73:
LBB15_5:
	##DEBUG_VALUE: operator+:str <- [DW_OP_constu 56, DW_OP_minus, DW_OP_deref] [$rbp+0]
Ltmp65:
	.loc	62 95 1 is_stmt 1       ## perfect_forwarding.cpp:95:1
	movl	%edx, %ecx
	movq	%rax, -32(%rbp)
	movl	%ecx, -36(%rbp)
	movq	-56(%rbp), %rdi         ## 8-byte Reload
	callq	__ZN8MyStringD1Ev
	jmp	LBB15_13
LBB15_6:
	##DEBUG_VALUE: operator+:str <- [DW_OP_constu 56, DW_OP_minus, DW_OP_deref] [$rbp+0]
	.loc	62 0 1 is_stmt 0        ## perfect_forwarding.cpp:0:1
	movq	-72(%rbp), %rax         ## 8-byte Reload
Ltmp74:
	.loc	62 91 18 is_stmt 1      ## perfect_forwarding.cpp:91:18
	movl	8(%rax), %ecx
	.loc	62 91 14 is_stmt 0      ## perfect_forwarding.cpp:91:14
	movl	%ecx, -44(%rbp)
LBB15_7:                                ## =>This Inner Loop Header: Depth=1
	##DEBUG_VALUE: operator+:str <- [DW_OP_constu 56, DW_OP_minus, DW_OP_deref] [$rbp+0]
Ltmp75:
	.loc	62 91 33                ## perfect_forwarding.cpp:91:33
	movl	-44(%rbp), %eax
	movq	-72(%rbp), %rcx         ## 8-byte Reload
	.loc	62 91 37                ## perfect_forwarding.cpp:91:37
	movl	8(%rcx), %edx
	.loc	62 91 53                ## perfect_forwarding.cpp:91:53
	movq	-16(%rbp), %rsi
	.loc	62 91 51                ## perfect_forwarding.cpp:91:51
	addl	8(%rsi), %edx
	.loc	62 91 35                ## perfect_forwarding.cpp:91:35
	cmpl	%edx, %eax
Ltmp76:
	.loc	62 91 5                 ## perfect_forwarding.cpp:91:5
	jge	LBB15_10
## %bb.8:                               ##   in Loop: Header=BB15_7 Depth=1
	##DEBUG_VALUE: operator+:str <- [DW_OP_constu 56, DW_OP_minus, DW_OP_deref] [$rbp+0]
Ltmp77:
	.loc	62 92 33 is_stmt 1      ## perfect_forwarding.cpp:92:33
	movq	-16(%rbp), %rax
	.loc	62 92 35 is_stmt 0      ## perfect_forwarding.cpp:92:35
	movq	(%rax), %rax
	.loc	62 92 50                ## perfect_forwarding.cpp:92:50
	movl	-44(%rbp), %ecx
	movq	-72(%rbp), %rdx         ## 8-byte Reload
	.loc	62 92 51                ## perfect_forwarding.cpp:92:51
	subl	8(%rdx), %ecx
	.loc	62 92 33                ## perfect_forwarding.cpp:92:33
	movslq	%ecx, %rsi
	movb	(%rax,%rsi), %dil
	movq	-56(%rbp), %rax         ## 8-byte Reload
	.loc	62 92 13                ## perfect_forwarding.cpp:92:13
	movq	(%rax), %rsi
	.loc	62 92 9                 ## perfect_forwarding.cpp:92:9
	movslq	-44(%rbp), %r8
	.loc	62 92 31                ## perfect_forwarding.cpp:92:31
	movb	%dil, (%rsi,%r8)
## %bb.9:                               ##   in Loop: Header=BB15_7 Depth=1
	##DEBUG_VALUE: operator+:str <- [DW_OP_constu 56, DW_OP_minus, DW_OP_deref] [$rbp+0]
	.loc	62 91 71 is_stmt 1      ## perfect_forwarding.cpp:91:71
	movl	-44(%rbp), %eax
	addl	$1, %eax
	movl	%eax, -44(%rbp)
	.loc	62 91 5 is_stmt 0       ## perfect_forwarding.cpp:91:5
	jmp	LBB15_7
Ltmp78:
LBB15_10:
	##DEBUG_VALUE: operator+:str <- [DW_OP_constu 56, DW_OP_minus, DW_OP_deref] [$rbp+0]
	.loc	62 0 5                  ## perfect_forwarding.cpp:0:5
	movq	-72(%rbp), %rax         ## 8-byte Reload
	.loc	62 93 25 is_stmt 1      ## perfect_forwarding.cpp:93:25
	movl	8(%rax), %ecx
	.loc	62 93 41 is_stmt 0      ## perfect_forwarding.cpp:93:41
	movq	-16(%rbp), %rdx
	.loc	62 93 39                ## perfect_forwarding.cpp:93:39
	addl	8(%rdx), %ecx
	movq	-56(%rbp), %rdx         ## 8-byte Reload
	.loc	62 93 23                ## perfect_forwarding.cpp:93:23
	movl	%ecx, 8(%rdx)
	.loc	62 94 5 is_stmt 1       ## perfect_forwarding.cpp:94:5
	movb	$1, -17(%rbp)
	.loc	62 95 1                 ## perfect_forwarding.cpp:95:1
	testb	$1, -17(%rbp)
	jne	LBB15_12
## %bb.11:
	##DEBUG_VALUE: operator+:str <- [DW_OP_constu 56, DW_OP_minus, DW_OP_deref] [$rbp+0]
	.loc	62 0 1 is_stmt 0        ## perfect_forwarding.cpp:0:1
	movq	-56(%rbp), %rdi         ## 8-byte Reload
	.loc	62 95 1                 ## perfect_forwarding.cpp:95:1
	callq	__ZN8MyStringD1Ev
LBB15_12:
	##DEBUG_VALUE: operator+:str <- [DW_OP_constu 56, DW_OP_minus, DW_OP_deref] [$rbp+0]
	.loc	62 0 1                  ## perfect_forwarding.cpp:0:1
	movq	-64(%rbp), %rax         ## 8-byte Reload
	.loc	62 95 1                 ## perfect_forwarding.cpp:95:1
	addq	$80, %rsp
	popq	%rbp
	retq
LBB15_13:
	##DEBUG_VALUE: operator+:str <- [DW_OP_constu 56, DW_OP_minus, DW_OP_deref] [$rbp+0]
	movq	-32(%rbp), %rdi
	callq	__Unwind_Resume
	ud2
Ltmp79:
Lfunc_end15:
	.cfi_endproc
	.section	__TEXT,__gcc_except_tab
	.p2align	2
GCC_except_table15:
Lexception1:
	.byte	255                     ## @LPStart Encoding = omit
	.byte	255                     ## @TType Encoding = omit
	.byte	1                       ## Call site Encoding = uleb128
	.uleb128 Lcst_end1-Lcst_begin1
Lcst_begin1:
	.uleb128 Lfunc_begin15-Lfunc_begin15 ## >> Call Site 1 <<
	.uleb128 Ltmp63-Lfunc_begin15   ##   Call between Lfunc_begin15 and Ltmp63
	.byte	0                       ##     has no landing pad
	.byte	0                       ##   On action: cleanup
	.uleb128 Ltmp63-Lfunc_begin15   ## >> Call Site 2 <<
	.uleb128 Ltmp64-Ltmp63          ##   Call between Ltmp63 and Ltmp64
	.uleb128 Ltmp65-Lfunc_begin15   ##     jumps to Ltmp65
	.byte	0                       ##   On action: cleanup
	.uleb128 Ltmp64-Lfunc_begin15   ## >> Call Site 3 <<
	.uleb128 Lfunc_end15-Ltmp64     ##   Call between Ltmp64 and Lfunc_end15
	.byte	0                       ##     has no landing pad
	.byte	0                       ##   On action: cleanup
Lcst_end1:
	.p2align	2
                                        ## -- End function
	.section	__TEXT,__text,regular,pure_instructions
	.globl	__ZN8MyStringaSERKS_    ## -- Begin function _ZN8MyStringaSERKS_
	.p2align	4, 0x90
__ZN8MyStringaSERKS_:                   ## @_ZN8MyStringaSERKS_
Lfunc_begin16:
	.loc	62 96 0 is_stmt 1       ## perfect_forwarding.cpp:96:0
	.cfi_startproc
## %bb.0:
	pushq	%rbp
	.cfi_def_cfa_offset 16
	.cfi_offset %rbp, -16
	movq	%rsp, %rbp
	.cfi_def_cfa_register %rbp
	subq	$48, %rsp
	movq	__ZNSt3__14coutE@GOTPCREL(%rip), %rax
	movq	%rdi, -8(%rbp)
	movq	%rsi, -16(%rbp)
	movq	-8(%rbp), %rsi
Ltmp80:
	.loc	62 97 15 prologue_end   ## perfect_forwarding.cpp:97:15
	movq	%rax, %rdi
	leaq	L_.str.4(%rip), %rax
	movq	%rsi, -32(%rbp)         ## 8-byte Spill
	movq	%rax, %rsi
	callq	__ZNSt3__1lsINS_11char_traitsIcEEEERNS_13basic_ostreamIcT_EES6_PKc
	.loc	62 97 35 is_stmt 0      ## perfect_forwarding.cpp:97:35
	movq	%rax, %rdi
	leaq	__ZNSt3__1L4endlIcNS_11char_traitsIcEEEERNS_13basic_ostreamIT_T0_EES7_(%rip), %rsi
	callq	__ZNSt3__113basic_ostreamIcNS_11char_traitsIcEEElsEPFRS3_S4_E
Ltmp81:
	.loc	62 98 9 is_stmt 1       ## perfect_forwarding.cpp:98:9
	movq	-16(%rbp), %rsi
	.loc	62 98 11 is_stmt 0      ## perfect_forwarding.cpp:98:11
	movl	8(%rsi), %ecx
	movq	-32(%rbp), %rsi         ## 8-byte Reload
	.loc	62 98 25                ## perfect_forwarding.cpp:98:25
	cmpl	12(%rsi), %ecx
	movq	%rax, -40(%rbp)         ## 8-byte Spill
Ltmp82:
	.loc	62 98 9                 ## perfect_forwarding.cpp:98:9
	jle	LBB16_4
## %bb.1:
	.loc	62 0 9                  ## perfect_forwarding.cpp:0:9
	movq	-32(%rbp), %rax         ## 8-byte Reload
Ltmp83:
	.loc	62 99 18 is_stmt 1      ## perfect_forwarding.cpp:99:18
	movq	(%rax), %rcx
	.loc	62 99 9 is_stmt 0       ## perfect_forwarding.cpp:99:9
	cmpq	$0, %rcx
	movq	%rcx, -48(%rbp)         ## 8-byte Spill
	je	LBB16_3
## %bb.2:
	.loc	62 0 9                  ## perfect_forwarding.cpp:0:9
	movq	-48(%rbp), %rdi         ## 8-byte Reload
	.loc	62 99 9                 ## perfect_forwarding.cpp:99:9
	callq	__ZdaPv
LBB16_3:
	.loc	62 100 37 is_stmt 1     ## perfect_forwarding.cpp:100:37
	movq	-16(%rbp), %rax
	.loc	62 100 39 is_stmt 0     ## perfect_forwarding.cpp:100:39
	movl	8(%rax), %ecx
	.loc	62 100 36               ## perfect_forwarding.cpp:100:36
	shll	$1, %ecx
	.loc	62 100 35               ## perfect_forwarding.cpp:100:35
	movslq	%ecx, %rdi
	.loc	62 100 26               ## perfect_forwarding.cpp:100:26
	callq	__Znam
	movq	-32(%rbp), %rdi         ## 8-byte Reload
	.loc	62 100 24               ## perfect_forwarding.cpp:100:24
	movq	%rax, (%rdi)
	.loc	62 101 31 is_stmt 1     ## perfect_forwarding.cpp:101:31
	movq	-16(%rbp), %rax
	.loc	62 101 33 is_stmt 0     ## perfect_forwarding.cpp:101:33
	movl	8(%rax), %ecx
	.loc	62 101 29               ## perfect_forwarding.cpp:101:29
	shll	$1, %ecx
	.loc	62 101 25               ## perfect_forwarding.cpp:101:25
	movl	%ecx, 12(%rdi)
Ltmp84:
LBB16_4:
	.loc	62 103 14 is_stmt 1     ## perfect_forwarding.cpp:103:14
	movl	$0, -20(%rbp)
LBB16_5:                                ## =>This Inner Loop Header: Depth=1
Ltmp85:
	.loc	62 103 21 is_stmt 0     ## perfect_forwarding.cpp:103:21
	movl	-20(%rbp), %eax
	.loc	62 103 25               ## perfect_forwarding.cpp:103:25
	movq	-16(%rbp), %rcx
	.loc	62 103 23               ## perfect_forwarding.cpp:103:23
	cmpl	8(%rcx), %eax
Ltmp86:
	.loc	62 103 5                ## perfect_forwarding.cpp:103:5
	jge	LBB16_8
## %bb.6:                               ##   in Loop: Header=BB16_5 Depth=1
Ltmp87:
	.loc	62 104 29 is_stmt 1     ## perfect_forwarding.cpp:104:29
	movq	-16(%rbp), %rax
	.loc	62 104 31 is_stmt 0     ## perfect_forwarding.cpp:104:31
	movq	(%rax), %rax
	.loc	62 104 29               ## perfect_forwarding.cpp:104:29
	movslq	-20(%rbp), %rcx
	movb	(%rax,%rcx), %dl
	movq	-32(%rbp), %rax         ## 8-byte Reload
	.loc	62 104 9                ## perfect_forwarding.cpp:104:9
	movq	(%rax), %rcx
	movslq	-20(%rbp), %rsi
	.loc	62 104 27               ## perfect_forwarding.cpp:104:27
	movb	%dl, (%rcx,%rsi)
Ltmp88:
## %bb.7:                               ##   in Loop: Header=BB16_5 Depth=1
	.loc	62 103 43 is_stmt 1     ## perfect_forwarding.cpp:103:43
	movl	-20(%rbp), %eax
	addl	$1, %eax
	movl	%eax, -20(%rbp)
	.loc	62 103 5 is_stmt 0      ## perfect_forwarding.cpp:103:5
	jmp	LBB16_5
Ltmp89:
LBB16_8:
	.loc	62 0 5                  ## perfect_forwarding.cpp:0:5
	movq	-32(%rbp), %rax         ## 8-byte Reload
	.loc	62 106 5 is_stmt 1      ## perfect_forwarding.cpp:106:5
	addq	$48, %rsp
	popq	%rbp
	retq
Ltmp90:
Lfunc_end16:
	.cfi_endproc
                                        ## -- End function
	.globl	__ZNK8MyString6lengthEv ## -- Begin function _ZNK8MyString6lengthEv
	.p2align	4, 0x90
__ZNK8MyString6lengthEv:                ## @_ZNK8MyString6lengthEv
Lfunc_begin17:
	.loc	62 121 0                ## perfect_forwarding.cpp:121:0
	.cfi_startproc
## %bb.0:
	pushq	%rbp
	.cfi_def_cfa_offset 16
	.cfi_offset %rbp, -16
	movq	%rsp, %rbp
	.cfi_def_cfa_register %rbp
	movq	%rdi, -8(%rbp)
	movq	-8(%rbp), %rdi
Ltmp91:
	.loc	62 121 38 prologue_end  ## perfect_forwarding.cpp:121:38
	movl	8(%rdi), %eax
	.loc	62 121 31 is_stmt 0     ## perfect_forwarding.cpp:121:31
	popq	%rbp
	retq
Ltmp92:
Lfunc_end17:
	.cfi_endproc
                                        ## -- End function
	.globl	__ZN8MyString5printEv   ## -- Begin function _ZN8MyString5printEv
	.p2align	4, 0x90
__ZN8MyString5printEv:                  ## @_ZN8MyString5printEv
Lfunc_begin18:
	.loc	62 122 0 is_stmt 1      ## perfect_forwarding.cpp:122:0
	.cfi_startproc
## %bb.0:
	pushq	%rbp
	.cfi_def_cfa_offset 16
	.cfi_offset %rbp, -16
	movq	%rsp, %rbp
	.cfi_def_cfa_register %rbp
	subq	$32, %rsp
	movq	%rdi, -8(%rbp)
	movq	-8(%rbp), %rdi
Ltmp93:
	.loc	62 123 14 prologue_end  ## perfect_forwarding.cpp:123:14
	movl	$0, -12(%rbp)
	movq	%rdi, -24(%rbp)         ## 8-byte Spill
LBB18_1:                                ## =>This Inner Loop Header: Depth=1
Ltmp94:
	.loc	62 123 21 is_stmt 0     ## perfect_forwarding.cpp:123:21
	movl	-12(%rbp), %eax
	movq	-24(%rbp), %rcx         ## 8-byte Reload
	.loc	62 123 23               ## perfect_forwarding.cpp:123:23
	cmpl	8(%rcx), %eax
Ltmp95:
	.loc	62 123 5                ## perfect_forwarding.cpp:123:5
	jge	LBB18_4
## %bb.2:                               ##   in Loop: Header=BB18_1 Depth=1
	.loc	62 0 5                  ## perfect_forwarding.cpp:0:5
	movq	__ZNSt3__14coutE@GOTPCREL(%rip), %rdi
	movq	-24(%rbp), %rax         ## 8-byte Reload
Ltmp96:
	.loc	62 124 22 is_stmt 1     ## perfect_forwarding.cpp:124:22
	movq	(%rax), %rcx
	movslq	-12(%rbp), %rdx
	.loc	62 124 19 is_stmt 0     ## perfect_forwarding.cpp:124:19
	movsbl	(%rcx,%rdx), %esi
	callq	__ZNSt3__1lsINS_11char_traitsIcEEEERNS_13basic_ostreamIcT_EES6_c
	movq	%rax, -32(%rbp)         ## 8-byte Spill
Ltmp97:
## %bb.3:                               ##   in Loop: Header=BB18_1 Depth=1
	.loc	62 123 42 is_stmt 1     ## perfect_forwarding.cpp:123:42
	movl	-12(%rbp), %eax
	addl	$1, %eax
	movl	%eax, -12(%rbp)
	.loc	62 123 5 is_stmt 0      ## perfect_forwarding.cpp:123:5
	jmp	LBB18_1
Ltmp98:
LBB18_4:
	.loc	62 126 1 is_stmt 1      ## perfect_forwarding.cpp:126:1
	addq	$32, %rsp
	popq	%rbp
	retq
Ltmp99:
Lfunc_end18:
	.cfi_endproc
                                        ## -- End function
	.globl	__ZNSt3__1lsINS_11char_traitsIcEEEERNS_13basic_ostreamIcT_EES6_c ## -- Begin function _ZNSt3__1lsINS_11char_traitsIcEEEERNS_13basic_ostreamIcT_EES6_c
	.weak_definition	__ZNSt3__1lsINS_11char_traitsIcEEEERNS_13basic_ostreamIcT_EES6_c
	.p2align	4, 0x90
__ZNSt3__1lsINS_11char_traitsIcEEEERNS_13basic_ostreamIcT_EES6_c: ## @_ZNSt3__1lsINS_11char_traitsIcEEEERNS_13basic_ostreamIcT_EES6_c
Lfunc_begin19:
	.loc	17 790 0                ## /Applications/Xcode.app/Contents/Developer/Toolchains/XcodeDefault.xctoolchain/usr/bin/../include/c++/v1/ostream:790:0
	.cfi_startproc
## %bb.0:
	pushq	%rbp
	.cfi_def_cfa_offset 16
	.cfi_offset %rbp, -16
	movq	%rsp, %rbp
	.cfi_def_cfa_register %rbp
	subq	$16, %rsp
	movb	%sil, %al
	movq	%rdi, -8(%rbp)
	movb	%al, -9(%rbp)
Ltmp100:
	.loc	17 791 47 prologue_end  ## /Applications/Xcode.app/Contents/Developer/Toolchains/XcodeDefault.xctoolchain/usr/bin/../include/c++/v1/ostream:791:47
	movq	-8(%rbp), %rdi
	.loc	17 791 12 is_stmt 0     ## /Applications/Xcode.app/Contents/Developer/Toolchains/XcodeDefault.xctoolchain/usr/bin/../include/c++/v1/ostream:791:12
	leaq	-9(%rbp), %rsi
	##DEBUG_VALUE: operator<<<std::__1::char_traits<char> >:__c <- [$rsi+0]
	movl	$1, %edx
	callq	__ZNSt3__124__put_character_sequenceIcNS_11char_traitsIcEEEERNS_13basic_ostreamIT_T0_EES7_PKS4_m
Ltmp101:
	.loc	17 791 5                ## /Applications/Xcode.app/Contents/Developer/Toolchains/XcodeDefault.xctoolchain/usr/bin/../include/c++/v1/ostream:791:5
	addq	$16, %rsp
	popq	%rbp
	retq
Ltmp102:
Lfunc_end19:
	.cfi_endproc
                                        ## -- End function
	.globl	__ZN8MyString7printlnEv ## -- Begin function _ZN8MyString7printlnEv
	.p2align	4, 0x90
__ZN8MyString7printlnEv:                ## @_ZN8MyString7printlnEv
Lfunc_begin20:
	.loc	62 127 0 is_stmt 1      ## perfect_forwarding.cpp:127:0
	.cfi_startproc
## %bb.0:
	pushq	%rbp
	.cfi_def_cfa_offset 16
	.cfi_offset %rbp, -16
	movq	%rsp, %rbp
	.cfi_def_cfa_register %rbp
	subq	$16, %rsp
	movq	%rdi, -8(%rbp)
	movq	-8(%rbp), %rdi
Ltmp103:
	.loc	62 128 13 prologue_end  ## perfect_forwarding.cpp:128:13
	callq	__ZN8MyString5printEv
	movq	__ZNSt3__14coutE@GOTPCREL(%rip), %rdi
	.loc	62 129 15               ## perfect_forwarding.cpp:129:15
	leaq	__ZNSt3__1L4endlIcNS_11char_traitsIcEEEERNS_13basic_ostreamIT_T0_EES7_(%rip), %rsi
	callq	__ZNSt3__113basic_ostreamIcNS_11char_traitsIcEEElsEPFRS3_S4_E
	movq	%rax, -16(%rbp)         ## 8-byte Spill
	.loc	62 130 1                ## perfect_forwarding.cpp:130:1
	addq	$16, %rsp
	popq	%rbp
	retq
Ltmp104:
Lfunc_end20:
	.cfi_endproc
                                        ## -- End function
	.globl	__Z7my_swapI8MyStringEvRT_S2_ ## -- Begin function _Z7my_swapI8MyStringEvRT_S2_
	.p2align	4, 0x90
__Z7my_swapI8MyStringEvRT_S2_:          ## @_Z7my_swapI8MyStringEvRT_S2_
Lfunc_begin21:
	.loc	62 139 0                ## perfect_forwarding.cpp:139:0
	.cfi_startproc
	.cfi_personality 155, ___gxx_personality_v0
	.cfi_lsda 16, Lexception2
## %bb.0:
	pushq	%rbp
	.cfi_def_cfa_offset 16
	.cfi_offset %rbp, -16
	movq	%rsp, %rbp
	.cfi_def_cfa_register %rbp
	subq	$64, %rsp
	movq	%rdi, -8(%rbp)
	movq	%rsi, -16(%rbp)
Ltmp110:
	.loc	62 140 29 prologue_end  ## perfect_forwarding.cpp:140:29
	movq	-8(%rbp), %rdi
	.loc	62 140 19 is_stmt 0     ## perfect_forwarding.cpp:140:19
	callq	__ZNSt3__1L4moveIR8MyStringEEONS_16remove_referenceIT_E4typeEOS4_
	leaq	-32(%rbp), %rdi
	.loc	62 140 14               ## perfect_forwarding.cpp:140:14
	movq	%rax, %rsi
	callq	__ZN8MyStringC1EOS_
	.loc	62 141 19 is_stmt 1     ## perfect_forwarding.cpp:141:19
	movq	-16(%rbp), %rdi
	.loc	62 141 9 is_stmt 0      ## perfect_forwarding.cpp:141:9
	callq	__ZNSt3__1L4moveIR8MyStringEEONS_16remove_referenceIT_E4typeEOS4_
	.loc	62 141 5                ## perfect_forwarding.cpp:141:5
	movq	-8(%rbp), %rdi
Ltmp105:
	.loc	62 141 7                ## perfect_forwarding.cpp:141:7
	movq	%rax, %rsi
	callq	__ZN8MyStringaSERKS_
Ltmp106:
	movq	%rax, -56(%rbp)         ## 8-byte Spill
	jmp	LBB21_1
LBB21_1:
	.loc	62 0 7                  ## perfect_forwarding.cpp:0:7
	leaq	-32(%rbp), %rdi
	.loc	62 142 9 is_stmt 1      ## perfect_forwarding.cpp:142:9
	callq	__ZNSt3__1L4moveIR8MyStringEEONS_16remove_referenceIT_E4typeEOS4_
	.loc	62 142 5 is_stmt 0      ## perfect_forwarding.cpp:142:5
	movq	-16(%rbp), %rdi
Ltmp107:
	.loc	62 142 7                ## perfect_forwarding.cpp:142:7
	movq	%rax, %rsi
	callq	__ZN8MyStringaSERKS_
Ltmp108:
	movq	%rax, -64(%rbp)         ## 8-byte Spill
	jmp	LBB21_2
LBB21_2:
	.loc	62 143 1 is_stmt 1      ## perfect_forwarding.cpp:143:1
	leaq	-32(%rbp), %rdi
	callq	__ZN8MyStringD1Ev
	addq	$64, %rsp
	popq	%rbp
	retq
LBB21_3:
Ltmp109:
	movl	%edx, %ecx
	movq	%rax, -40(%rbp)
	movl	%ecx, -44(%rbp)
	leaq	-32(%rbp), %rdi
	callq	__ZN8MyStringD1Ev
## %bb.4:
	movq	-40(%rbp), %rdi
	callq	__Unwind_Resume
	ud2
Ltmp111:
Lfunc_end21:
	.cfi_endproc
	.section	__TEXT,__gcc_except_tab
	.p2align	2
GCC_except_table21:
Lexception2:
	.byte	255                     ## @LPStart Encoding = omit
	.byte	255                     ## @TType Encoding = omit
	.byte	1                       ## Call site Encoding = uleb128
	.uleb128 Lcst_end2-Lcst_begin2
Lcst_begin2:
	.uleb128 Ltmp105-Lfunc_begin21  ## >> Call Site 1 <<
	.uleb128 Ltmp108-Ltmp105        ##   Call between Ltmp105 and Ltmp108
	.uleb128 Ltmp109-Lfunc_begin21  ##     jumps to Ltmp109
	.byte	0                       ##   On action: cleanup
	.uleb128 Ltmp108-Lfunc_begin21  ## >> Call Site 2 <<
	.uleb128 Lfunc_end21-Ltmp108    ##   Call between Ltmp108 and Lfunc_end21
	.byte	0                       ##     has no landing pad
	.byte	0                       ##   On action: cleanup
Lcst_end2:
	.p2align	2
                                        ## -- End function
	.section	__TEXT,__text,regular,pure_instructions
	.p2align	4, 0x90         ## -- Begin function _ZNSt3__1L4moveIR8MyStringEEONS_16remove_referenceIT_E4typeEOS4_
__ZNSt3__1L4moveIR8MyStringEEONS_16remove_referenceIT_E4typeEOS4_: ## @_ZNSt3__1L4moveIR8MyStringEEONS_16remove_referenceIT_E4typeEOS4_
Lfunc_begin22:
	.loc	8 2311 0                ## /Applications/Xcode.app/Contents/Developer/Toolchains/XcodeDefault.xctoolchain/usr/bin/../include/c++/v1/type_traits:2311:0
	.cfi_startproc
## %bb.0:
	pushq	%rbp
	.cfi_def_cfa_offset 16
	.cfi_offset %rbp, -16
	movq	%rsp, %rbp
	.cfi_def_cfa_register %rbp
	movq	%rdi, -8(%rbp)
Ltmp112:
	.loc	8 2313 31 prologue_end  ## /Applications/Xcode.app/Contents/Developer/Toolchains/XcodeDefault.xctoolchain/usr/bin/../include/c++/v1/type_traits:2313:31
	movq	-8(%rbp), %rax
	.loc	8 2313 5 is_stmt 0      ## /Applications/Xcode.app/Contents/Developer/Toolchains/XcodeDefault.xctoolchain/usr/bin/../include/c++/v1/type_traits:2313:5
	popq	%rbp
	retq
Ltmp113:
Lfunc_end22:
	.cfi_endproc
                                        ## -- End function
	.globl	_main                   ## -- Begin function main
	.p2align	4, 0x90
_main:                                  ## @main
Lfunc_begin23:
	.loc	62 146 0 is_stmt 1      ## perfect_forwarding.cpp:146:0
	.cfi_startproc
	.cfi_personality 155, ___gxx_personality_v0
	.cfi_lsda 16, Lexception3
## %bb.0:
	pushq	%rbp
	.cfi_def_cfa_offset 16
	.cfi_offset %rbp, -16
	movq	%rsp, %rbp
	.cfi_def_cfa_register %rbp
	subq	$208, %rsp
Ltmp160:
	.loc	62 147 15 prologue_end  ## perfect_forwarding.cpp:147:15
	movq	__ZNSt3__14coutE@GOTPCREL(%rip), %rax
	leaq	L_.str.5(%rip), %rsi
	movq	%rax, %rdi
	movq	%rax, -88(%rbp)         ## 8-byte Spill
	callq	__ZNSt3__1lsINS_11char_traitsIcEEEERNS_13basic_ostreamIcT_EES6_PKc
	.loc	62 147 33 is_stmt 0     ## perfect_forwarding.cpp:147:33
	leaq	__ZNSt3__1L4endlIcNS_11char_traitsIcEEEERNS_13basic_ostreamIT_T0_EES7_(%rip), %rsi
	movq	%rax, %rdi
	callq	__ZNSt3__113basic_ostreamIcNS_11char_traitsIcEEElsEPFRS3_S4_E
	.loc	62 148 14 is_stmt 1     ## perfect_forwarding.cpp:148:14
	leaq	L_.str.6(%rip), %rsi
	leaq	-16(%rbp), %rdi
	movq	%rax, -96(%rbp)         ## 8-byte Spill
	callq	__ZN8MyStringC1EPKc
Ltmp114:
	.loc	62 150 15               ## perfect_forwarding.cpp:150:15
	leaq	L_.str.7(%rip), %rsi
	movq	-88(%rbp), %rdi         ## 8-byte Reload
	callq	__ZNSt3__1lsINS_11char_traitsIcEEEERNS_13basic_ostreamIcT_EES6_PKc
Ltmp115:
	movq	%rax, -104(%rbp)        ## 8-byte Spill
	jmp	LBB23_1
LBB23_1:
Ltmp116:
	.loc	62 150 40 is_stmt 0     ## perfect_forwarding.cpp:150:40
	leaq	__ZNSt3__1L4endlIcNS_11char_traitsIcEEEERNS_13basic_ostreamIT_T0_EES7_(%rip), %rsi
	movq	-104(%rbp), %rdi        ## 8-byte Reload
	callq	__ZNSt3__113basic_ostreamIcNS_11char_traitsIcEEElsEPFRS3_S4_E
Ltmp117:
	movq	%rax, -112(%rbp)        ## 8-byte Spill
	jmp	LBB23_2
LBB23_2:
Ltmp118:
	.loc	62 0 40                 ## perfect_forwarding.cpp:0:40
	leaq	-16(%rbp), %rdi
	.loc	62 151 10 is_stmt 1     ## perfect_forwarding.cpp:151:10
	callq	__ZN8MyString7printlnEv
Ltmp119:
	jmp	LBB23_3
LBB23_3:
Ltmp120:
	.loc	62 153 15               ## perfect_forwarding.cpp:153:15
	movq	__ZNSt3__14coutE@GOTPCREL(%rip), %rdi
	leaq	L_.str.8(%rip), %rsi
	callq	__ZNSt3__1lsINS_11char_traitsIcEEEERNS_13basic_ostreamIcT_EES6_PKc
Ltmp121:
	movq	%rax, -120(%rbp)        ## 8-byte Spill
	jmp	LBB23_4
LBB23_4:
Ltmp122:
	.loc	62 153 39 is_stmt 0     ## perfect_forwarding.cpp:153:39
	leaq	__ZNSt3__1L4endlIcNS_11char_traitsIcEEEERNS_13basic_ostreamIT_T0_EES7_(%rip), %rsi
	movq	-120(%rbp), %rdi        ## 8-byte Reload
	callq	__ZNSt3__113basic_ostreamIcNS_11char_traitsIcEEElsEPFRS3_S4_E
Ltmp123:
	movq	%rax, -128(%rbp)        ## 8-byte Spill
	jmp	LBB23_5
LBB23_5:
	.loc	62 0 39                 ## perfect_forwarding.cpp:0:39
	leaq	-16(%rbp), %rdi
	.loc	62 155 19 is_stmt 1     ## perfect_forwarding.cpp:155:19
	callq	__ZNSt3__1L4moveIR8MyStringEEONS_16remove_referenceIT_E4typeEOS4_
	leaq	-48(%rbp), %rdi
	movq	%rdi, -136(%rbp)        ## 8-byte Spill
	.loc	62 155 14 is_stmt 0     ## perfect_forwarding.cpp:155:14
	movq	%rax, %rsi
	callq	__ZN8MyStringC1EOS_
Ltmp125:
	movq	-136(%rbp), %rdi        ## 8-byte Reload
	.loc	62 158 10 is_stmt 1     ## perfect_forwarding.cpp:158:10
	callq	__ZN8MyString7printlnEv
Ltmp126:
	jmp	LBB23_6
LBB23_6:
Ltmp127:
	.loc	62 160 15               ## perfect_forwarding.cpp:160:15
	movq	__ZNSt3__14coutE@GOTPCREL(%rip), %rdi
	leaq	L_.str.9(%rip), %rsi
	callq	__ZNSt3__1lsINS_11char_traitsIcEEEERNS_13basic_ostreamIcT_EES6_PKc
Ltmp128:
	movq	%rax, -144(%rbp)        ## 8-byte Spill
	jmp	LBB23_7
LBB23_7:
Ltmp129:
	.loc	62 160 44 is_stmt 0     ## perfect_forwarding.cpp:160:44
	leaq	__ZNSt3__1L4endlIcNS_11char_traitsIcEEEERNS_13basic_ostreamIT_T0_EES7_(%rip), %rsi
	movq	-144(%rbp), %rdi        ## 8-byte Reload
	callq	__ZNSt3__113basic_ostreamIcNS_11char_traitsIcEEElsEPFRS3_S4_E
Ltmp130:
	movq	%rax, -152(%rbp)        ## 8-byte Spill
	jmp	LBB23_8
LBB23_8:
Ltmp131:
	.loc	62 161 14 is_stmt 1     ## perfect_forwarding.cpp:161:14
	leaq	L_.str.6(%rip), %rsi
	leaq	-64(%rbp), %rdi
	callq	__ZN8MyStringC1EPKc
Ltmp132:
	jmp	LBB23_9
LBB23_9:
Ltmp134:
	.loc	62 162 14               ## perfect_forwarding.cpp:162:14
	leaq	L_.str.10(%rip), %rsi
	leaq	-80(%rbp), %rdi
	callq	__ZN8MyStringC1EPKc
Ltmp135:
	jmp	LBB23_10
LBB23_10:
Ltmp137:
	.loc	62 163 15               ## perfect_forwarding.cpp:163:15
	movq	__ZNSt3__14coutE@GOTPCREL(%rip), %rdi
	leaq	L_.str.11(%rip), %rsi
	callq	__ZNSt3__1lsINS_11char_traitsIcEEEERNS_13basic_ostreamIcT_EES6_PKc
Ltmp138:
	movq	%rax, -160(%rbp)        ## 8-byte Spill
	jmp	LBB23_11
LBB23_11:
Ltmp139:
	.loc	62 163 40 is_stmt 0     ## perfect_forwarding.cpp:163:40
	leaq	__ZNSt3__1L4endlIcNS_11char_traitsIcEEEERNS_13basic_ostreamIT_T0_EES7_(%rip), %rsi
	movq	-160(%rbp), %rdi        ## 8-byte Reload
	callq	__ZNSt3__113basic_ostreamIcNS_11char_traitsIcEEElsEPFRS3_S4_E
Ltmp140:
	movq	%rax, -168(%rbp)        ## 8-byte Spill
	jmp	LBB23_12
LBB23_12:
Ltmp141:
	.loc	62 0 40                 ## perfect_forwarding.cpp:0:40
	leaq	-64(%rbp), %rdi
	.loc	62 164 10 is_stmt 1     ## perfect_forwarding.cpp:164:10
	callq	__ZN8MyString7printlnEv
Ltmp142:
	jmp	LBB23_13
LBB23_13:
Ltmp143:
	.loc	62 0 10 is_stmt 0       ## perfect_forwarding.cpp:0:10
	leaq	-80(%rbp), %rdi
	.loc	62 165 10 is_stmt 1     ## perfect_forwarding.cpp:165:10
	callq	__ZN8MyString7printlnEv
Ltmp144:
	jmp	LBB23_14
LBB23_14:
Ltmp145:
	.loc	62 166 15               ## perfect_forwarding.cpp:166:15
	movq	__ZNSt3__14coutE@GOTPCREL(%rip), %rdi
	leaq	L_.str.12(%rip), %rsi
	callq	__ZNSt3__1lsINS_11char_traitsIcEEEERNS_13basic_ostreamIcT_EES6_PKc
Ltmp146:
	movq	%rax, -176(%rbp)        ## 8-byte Spill
	jmp	LBB23_15
LBB23_15:
Ltmp147:
	.loc	62 166 39 is_stmt 0     ## perfect_forwarding.cpp:166:39
	leaq	__ZNSt3__1L4endlIcNS_11char_traitsIcEEEERNS_13basic_ostreamIT_T0_EES7_(%rip), %rsi
	movq	-176(%rbp), %rdi        ## 8-byte Reload
	callq	__ZNSt3__113basic_ostreamIcNS_11char_traitsIcEEElsEPFRS3_S4_E
Ltmp148:
	movq	%rax, -184(%rbp)        ## 8-byte Spill
	jmp	LBB23_16
LBB23_16:
Ltmp149:
	.loc	62 0 39                 ## perfect_forwarding.cpp:0:39
	leaq	-64(%rbp), %rdi
	leaq	-80(%rbp), %rsi
	.loc	62 167 5 is_stmt 1      ## perfect_forwarding.cpp:167:5
	callq	__Z7my_swapI8MyStringEvRT_S2_
Ltmp150:
	jmp	LBB23_17
LBB23_17:
Ltmp151:
	.loc	62 0 5 is_stmt 0        ## perfect_forwarding.cpp:0:5
	leaq	-64(%rbp), %rdi
	.loc	62 168 10 is_stmt 1     ## perfect_forwarding.cpp:168:10
	callq	__ZN8MyString7printlnEv
Ltmp152:
	jmp	LBB23_18
LBB23_18:
Ltmp153:
	.loc	62 0 10 is_stmt 0       ## perfect_forwarding.cpp:0:10
	leaq	-80(%rbp), %rdi
	.loc	62 169 10 is_stmt 1     ## perfect_forwarding.cpp:169:10
	callq	__ZN8MyString7printlnEv
Ltmp154:
	jmp	LBB23_19
LBB23_19:
Ltmp155:
	.loc	62 171 15               ## perfect_forwarding.cpp:171:15
	movq	__ZNSt3__14coutE@GOTPCREL(%rip), %rdi
	leaq	L_.str.13(%rip), %rsi
	callq	__ZNSt3__1lsINS_11char_traitsIcEEEERNS_13basic_ostreamIcT_EES6_PKc
Ltmp156:
	movq	%rax, -192(%rbp)        ## 8-byte Spill
	jmp	LBB23_20
LBB23_20:
Ltmp157:
	.loc	62 171 34 is_stmt 0     ## perfect_forwarding.cpp:171:34
	leaq	__ZNSt3__1L4endlIcNS_11char_traitsIcEEEERNS_13basic_ostreamIT_T0_EES7_(%rip), %rsi
	movq	-192(%rbp), %rdi        ## 8-byte Reload
	callq	__ZNSt3__113basic_ostreamIcNS_11char_traitsIcEEElsEPFRS3_S4_E
Ltmp158:
	movq	%rax, -200(%rbp)        ## 8-byte Spill
	jmp	LBB23_21
LBB23_21:
	.loc	62 172 1 is_stmt 1      ## perfect_forwarding.cpp:172:1
	leaq	-80(%rbp), %rdi
	callq	__ZN8MyStringD1Ev
	leaq	-64(%rbp), %rdi
	callq	__ZN8MyStringD1Ev
	leaq	-48(%rbp), %rdi
	callq	__ZN8MyStringD1Ev
	leaq	-16(%rbp), %rdi
	callq	__ZN8MyStringD1Ev
	xorl	%eax, %eax
	addq	$208, %rsp
	popq	%rbp
	retq
LBB23_22:
Ltmp124:
	movl	%edx, %ecx
	movq	%rax, -24(%rbp)
	movl	%ecx, -28(%rbp)
	jmp	LBB23_28
LBB23_23:
Ltmp133:
	movl	%edx, %ecx
	movq	%rax, -24(%rbp)
	movl	%ecx, -28(%rbp)
	jmp	LBB23_27
LBB23_24:
Ltmp136:
	movl	%edx, %ecx
	movq	%rax, -24(%rbp)
	movl	%ecx, -28(%rbp)
	jmp	LBB23_26
LBB23_25:
Ltmp159:
	movl	%edx, %ecx
	movq	%rax, -24(%rbp)
	movl	%ecx, -28(%rbp)
	leaq	-80(%rbp), %rdi
	callq	__ZN8MyStringD1Ev
LBB23_26:
	leaq	-64(%rbp), %rdi
	callq	__ZN8MyStringD1Ev
LBB23_27:
	leaq	-48(%rbp), %rdi
	callq	__ZN8MyStringD1Ev
LBB23_28:
	leaq	-16(%rbp), %rdi
	callq	__ZN8MyStringD1Ev
## %bb.29:
	movq	-24(%rbp), %rdi
	callq	__Unwind_Resume
	ud2
Ltmp161:
Lfunc_end23:
	.cfi_endproc
	.section	__TEXT,__gcc_except_tab
	.p2align	2
GCC_except_table23:
Lexception3:
	.byte	255                     ## @LPStart Encoding = omit
	.byte	255                     ## @TType Encoding = omit
	.byte	1                       ## Call site Encoding = uleb128
	.uleb128 Lcst_end3-Lcst_begin3
Lcst_begin3:
	.uleb128 Lfunc_begin23-Lfunc_begin23 ## >> Call Site 1 <<
	.uleb128 Ltmp114-Lfunc_begin23  ##   Call between Lfunc_begin23 and Ltmp114
	.byte	0                       ##     has no landing pad
	.byte	0                       ##   On action: cleanup
	.uleb128 Ltmp114-Lfunc_begin23  ## >> Call Site 2 <<
	.uleb128 Ltmp123-Ltmp114        ##   Call between Ltmp114 and Ltmp123
	.uleb128 Ltmp124-Lfunc_begin23  ##     jumps to Ltmp124
	.byte	0                       ##   On action: cleanup
	.uleb128 Ltmp125-Lfunc_begin23  ## >> Call Site 3 <<
	.uleb128 Ltmp132-Ltmp125        ##   Call between Ltmp125 and Ltmp132
	.uleb128 Ltmp133-Lfunc_begin23  ##     jumps to Ltmp133
	.byte	0                       ##   On action: cleanup
	.uleb128 Ltmp134-Lfunc_begin23  ## >> Call Site 4 <<
	.uleb128 Ltmp135-Ltmp134        ##   Call between Ltmp134 and Ltmp135
	.uleb128 Ltmp136-Lfunc_begin23  ##     jumps to Ltmp136
	.byte	0                       ##   On action: cleanup
	.uleb128 Ltmp137-Lfunc_begin23  ## >> Call Site 5 <<
	.uleb128 Ltmp158-Ltmp137        ##   Call between Ltmp137 and Ltmp158
	.uleb128 Ltmp159-Lfunc_begin23  ##     jumps to Ltmp159
	.byte	0                       ##   On action: cleanup
	.uleb128 Ltmp158-Lfunc_begin23  ## >> Call Site 6 <<
	.uleb128 Lfunc_end23-Ltmp158    ##   Call between Ltmp158 and Lfunc_end23
	.byte	0                       ##     has no landing pad
	.byte	0                       ##   On action: cleanup
Lcst_end3:
	.p2align	2
                                        ## -- End function
	.section	__TEXT,__text,regular,pure_instructions
	.globl	__ZNSt3__124__put_character_sequenceIcNS_11char_traitsIcEEEERNS_13basic_ostreamIT_T0_EES7_PKS4_m ## -- Begin function _ZNSt3__124__put_character_sequenceIcNS_11char_traitsIcEEEERNS_13basic_ostreamIT_T0_EES7_PKS4_m
	.weak_definition	__ZNSt3__124__put_character_sequenceIcNS_11char_traitsIcEEEERNS_13basic_ostreamIT_T0_EES7_PKS4_m
	.p2align	4, 0x90
__ZNSt3__124__put_character_sequenceIcNS_11char_traitsIcEEEERNS_13basic_ostreamIT_T0_EES7_PKS4_m: ## @_ZNSt3__124__put_character_sequenceIcNS_11char_traitsIcEEEERNS_13basic_ostreamIT_T0_EES7_PKS4_m
Lfunc_begin24:
	.loc	17 717 0                ## /Applications/Xcode.app/Contents/Developer/Toolchains/XcodeDefault.xctoolchain/usr/bin/../include/c++/v1/ostream:717:0
	.cfi_startproc
	.cfi_personality 155, ___gxx_personality_v0
	.cfi_lsda 16, Lexception4
## %bb.0:
	pushq	%rbp
	.cfi_def_cfa_offset 16
	.cfi_offset %rbp, -16
	movq	%rsp, %rbp
	.cfi_def_cfa_register %rbp
	subq	$160, %rsp
	movq	%rdi, -8(%rbp)
	movq	%rsi, -16(%rbp)
	movq	%rdx, -24(%rbp)
Ltmp182:
	.loc	17 722 61 prologue_end  ## /Applications/Xcode.app/Contents/Developer/Toolchains/XcodeDefault.xctoolchain/usr/bin/../include/c++/v1/ostream:722:61
	movq	-8(%rbp), %rsi
Ltmp162:
	leaq	-40(%rbp), %rdi
	.loc	17 722 57 is_stmt 0     ## /Applications/Xcode.app/Contents/Developer/Toolchains/XcodeDefault.xctoolchain/usr/bin/../include/c++/v1/ostream:722:57
	callq	__ZNSt3__113basic_ostreamIcNS_11char_traitsIcEEE6sentryC1ERS3_
Ltmp163:
	jmp	LBB24_1
LBB24_1:
Ltmp165:
	.loc	17 0 57                 ## /Applications/Xcode.app/Contents/Developer/Toolchains/XcodeDefault.xctoolchain/usr/bin/../include/c++/v1/ostream:0:57
	leaq	-40(%rbp), %rdi
Ltmp183:
	.loc	17 723 13 is_stmt 1     ## /Applications/Xcode.app/Contents/Developer/Toolchains/XcodeDefault.xctoolchain/usr/bin/../include/c++/v1/ostream:723:13
	callq	__ZNKSt3__113basic_ostreamIcNS_11char_traitsIcEEE6sentrycvbEv
Ltmp166:
	movb	%al, -73(%rbp)          ## 1-byte Spill
	jmp	LBB24_2
Ltmp184:
LBB24_2:
	.loc	17 0 13 is_stmt 0       ## /Applications/Xcode.app/Contents/Developer/Toolchains/XcodeDefault.xctoolchain/usr/bin/../include/c++/v1/ostream:0:13
	movb	-73(%rbp), %al          ## 1-byte Reload
	.loc	17 723 13               ## /Applications/Xcode.app/Contents/Developer/Toolchains/XcodeDefault.xctoolchain/usr/bin/../include/c++/v1/ostream:723:13
	testb	$1, %al
	jne	LBB24_3
	jmp	LBB24_18
LBB24_3:
Ltmp185:
	.loc	17 726 38 is_stmt 1     ## /Applications/Xcode.app/Contents/Developer/Toolchains/XcodeDefault.xctoolchain/usr/bin/../include/c++/v1/ostream:726:38
	movq	-8(%rbp), %rsi
	leaq	-72(%rbp), %rdi
	.loc	17 726 34 is_stmt 0     ## /Applications/Xcode.app/Contents/Developer/Toolchains/XcodeDefault.xctoolchain/usr/bin/../include/c++/v1/ostream:726:34
	callq	__ZNSt3__119ostreambuf_iteratorIcNS_11char_traitsIcEEEC1ERNS_13basic_ostreamIcS2_EE
	.loc	17 727 34 is_stmt 1     ## /Applications/Xcode.app/Contents/Developer/Toolchains/XcodeDefault.xctoolchain/usr/bin/../include/c++/v1/ostream:727:34
	movq	-16(%rbp), %rsi
	.loc	17 728 35               ## /Applications/Xcode.app/Contents/Developer/Toolchains/XcodeDefault.xctoolchain/usr/bin/../include/c++/v1/ostream:728:35
	movq	-8(%rbp), %rdi
	movq	(%rdi), %rax
	movq	-24(%rax), %rax
	addq	%rax, %rdi
Ltmp167:
	movq	%rsi, -88(%rbp)         ## 8-byte Spill
	.loc	17 728 40 is_stmt 0     ## /Applications/Xcode.app/Contents/Developer/Toolchains/XcodeDefault.xctoolchain/usr/bin/../include/c++/v1/ostream:728:40
	callq	__ZNKSt3__18ios_base5flagsEv
Ltmp168:
	movl	%eax, -92(%rbp)         ## 4-byte Spill
	jmp	LBB24_4
LBB24_4:
	.loc	17 0 40                 ## /Applications/Xcode.app/Contents/Developer/Toolchains/XcodeDefault.xctoolchain/usr/bin/../include/c++/v1/ostream:0:40
	movl	-92(%rbp), %eax         ## 4-byte Reload
	.loc	17 728 48               ## /Applications/Xcode.app/Contents/Developer/Toolchains/XcodeDefault.xctoolchain/usr/bin/../include/c++/v1/ostream:728:48
	andl	$176, %eax
	.loc	17 728 73               ## /Applications/Xcode.app/Contents/Developer/Toolchains/XcodeDefault.xctoolchain/usr/bin/../include/c++/v1/ostream:728:73
	cmpl	$32, %eax
	.loc	17 728 34               ## /Applications/Xcode.app/Contents/Developer/Toolchains/XcodeDefault.xctoolchain/usr/bin/../include/c++/v1/ostream:728:34
	jne	LBB24_6
## %bb.5:
	.loc	17 729 38 is_stmt 1     ## /Applications/Xcode.app/Contents/Developer/Toolchains/XcodeDefault.xctoolchain/usr/bin/../include/c++/v1/ostream:729:38
	movq	-16(%rbp), %rax
	.loc	17 729 44 is_stmt 0     ## /Applications/Xcode.app/Contents/Developer/Toolchains/XcodeDefault.xctoolchain/usr/bin/../include/c++/v1/ostream:729:44
	addq	-24(%rbp), %rax
	movq	%rax, -104(%rbp)        ## 8-byte Spill
	.loc	17 728 34 is_stmt 1     ## /Applications/Xcode.app/Contents/Developer/Toolchains/XcodeDefault.xctoolchain/usr/bin/../include/c++/v1/ostream:728:34
	jmp	LBB24_7
LBB24_6:
	.loc	17 730 38               ## /Applications/Xcode.app/Contents/Developer/Toolchains/XcodeDefault.xctoolchain/usr/bin/../include/c++/v1/ostream:730:38
	movq	-16(%rbp), %rax
	movq	%rax, -104(%rbp)        ## 8-byte Spill
LBB24_7:
	.loc	17 0 38 is_stmt 0       ## /Applications/Xcode.app/Contents/Developer/Toolchains/XcodeDefault.xctoolchain/usr/bin/../include/c++/v1/ostream:0:38
	movq	-104(%rbp), %rax        ## 8-byte Reload
	.loc	17 731 34 is_stmt 1     ## /Applications/Xcode.app/Contents/Developer/Toolchains/XcodeDefault.xctoolchain/usr/bin/../include/c++/v1/ostream:731:34
	movq	-16(%rbp), %rcx
	.loc	17 731 42 is_stmt 0     ## /Applications/Xcode.app/Contents/Developer/Toolchains/XcodeDefault.xctoolchain/usr/bin/../include/c++/v1/ostream:731:42
	movq	-24(%rbp), %rdx
	.loc	17 731 40               ## /Applications/Xcode.app/Contents/Developer/Toolchains/XcodeDefault.xctoolchain/usr/bin/../include/c++/v1/ostream:731:40
	addq	%rdx, %rcx
	.loc	17 732 34 is_stmt 1     ## /Applications/Xcode.app/Contents/Developer/Toolchains/XcodeDefault.xctoolchain/usr/bin/../include/c++/v1/ostream:732:34
	movq	-8(%rbp), %rdx
	movq	(%rdx), %rsi
	movq	-24(%rsi), %rsi
	addq	%rsi, %rdx
Ltmp169:
	.loc	17 733 39               ## /Applications/Xcode.app/Contents/Developer/Toolchains/XcodeDefault.xctoolchain/usr/bin/../include/c++/v1/ostream:733:39
	movq	%rdx, %rdi
	movq	%rax, -112(%rbp)        ## 8-byte Spill
	movq	%rcx, -120(%rbp)        ## 8-byte Spill
	movq	%rdx, -128(%rbp)        ## 8-byte Spill
	callq	__ZNKSt3__19basic_iosIcNS_11char_traitsIcEEE4fillEv
Ltmp170:
	movb	%al, -129(%rbp)         ## 1-byte Spill
	jmp	LBB24_8
LBB24_8:
	.loc	17 726 17               ## /Applications/Xcode.app/Contents/Developer/Toolchains/XcodeDefault.xctoolchain/usr/bin/../include/c++/v1/ostream:726:17
	movq	-72(%rbp), %rdi
Ltmp171:
	movb	-129(%rbp), %al         ## 1-byte Reload
	movsbl	%al, %r9d
	movq	-88(%rbp), %rsi         ## 8-byte Reload
	movq	-112(%rbp), %rdx        ## 8-byte Reload
	movq	-120(%rbp), %rcx        ## 8-byte Reload
	movq	-128(%rbp), %r8         ## 8-byte Reload
	callq	__ZNSt3__116__pad_and_outputIcNS_11char_traitsIcEEEENS_19ostreambuf_iteratorIT_T0_EES6_PKS4_S8_S8_RNS_8ios_baseES4_
Ltmp172:
	movq	%rax, -144(%rbp)        ## 8-byte Spill
	jmp	LBB24_9
LBB24_9:
	.loc	17 0 17 is_stmt 0       ## /Applications/Xcode.app/Contents/Developer/Toolchains/XcodeDefault.xctoolchain/usr/bin/../include/c++/v1/ostream:0:17
	movq	-144(%rbp), %rax        ## 8-byte Reload
	.loc	17 726 17               ## /Applications/Xcode.app/Contents/Developer/Toolchains/XcodeDefault.xctoolchain/usr/bin/../include/c++/v1/ostream:726:17
	movq	%rax, -64(%rbp)
	.loc	17 733 47 is_stmt 1     ## /Applications/Xcode.app/Contents/Developer/Toolchains/XcodeDefault.xctoolchain/usr/bin/../include/c++/v1/ostream:733:47
	leaq	-64(%rbp), %rdi
	callq	__ZNKSt3__119ostreambuf_iteratorIcNS_11char_traitsIcEEE6failedEv
Ltmp186:
	.loc	17 726 17               ## /Applications/Xcode.app/Contents/Developer/Toolchains/XcodeDefault.xctoolchain/usr/bin/../include/c++/v1/ostream:726:17
	testb	$1, %al
	jne	LBB24_10
	jmp	LBB24_17
LBB24_10:
Ltmp187:
	.loc	17 734 17               ## /Applications/Xcode.app/Contents/Developer/Toolchains/XcodeDefault.xctoolchain/usr/bin/../include/c++/v1/ostream:734:17
	movq	-8(%rbp), %rax
	movq	(%rax), %rcx
	movq	-24(%rcx), %rcx
	addq	%rcx, %rax
Ltmp173:
	movl	$5, %esi
	.loc	17 734 22 is_stmt 0     ## /Applications/Xcode.app/Contents/Developer/Toolchains/XcodeDefault.xctoolchain/usr/bin/../include/c++/v1/ostream:734:22
	movq	%rax, %rdi
	callq	__ZNSt3__19basic_iosIcNS_11char_traitsIcEEE8setstateEj
Ltmp174:
	jmp	LBB24_11
LBB24_11:
	.loc	17 734 17               ## /Applications/Xcode.app/Contents/Developer/Toolchains/XcodeDefault.xctoolchain/usr/bin/../include/c++/v1/ostream:734:17
	jmp	LBB24_17
Ltmp188:
LBB24_12:
Ltmp164:
	.loc	17 744 1 is_stmt 1      ## /Applications/Xcode.app/Contents/Developer/Toolchains/XcodeDefault.xctoolchain/usr/bin/../include/c++/v1/ostream:744:1
	movl	%edx, %ecx
	movq	%rax, -48(%rbp)
	movl	%ecx, -52(%rbp)
	jmp	LBB24_14
LBB24_13:
Ltmp175:
Ltmp189:
	.loc	17 744 1 is_stmt 0      ## /Applications/Xcode.app/Contents/Developer/Toolchains/XcodeDefault.xctoolchain/usr/bin/../include/c++/v1/ostream:744:1
	movl	%edx, %ecx
	movq	%rax, -48(%rbp)
	movl	%ecx, -52(%rbp)
Ltmp190:
	.loc	17 737 5 is_stmt 1      ## /Applications/Xcode.app/Contents/Developer/Toolchains/XcodeDefault.xctoolchain/usr/bin/../include/c++/v1/ostream:737:5
	leaq	-40(%rbp), %rdi
	callq	__ZNSt3__113basic_ostreamIcNS_11char_traitsIcEEE6sentryD1Ev
LBB24_14:
Ltmp191:
	.loc	17 737 5 is_stmt 0      ## /Applications/Xcode.app/Contents/Developer/Toolchains/XcodeDefault.xctoolchain/usr/bin/../include/c++/v1/ostream:737:5
	movq	-48(%rbp), %rdi
	callq	___cxa_begin_catch
Ltmp192:
	.loc	17 740 9 is_stmt 1      ## /Applications/Xcode.app/Contents/Developer/Toolchains/XcodeDefault.xctoolchain/usr/bin/../include/c++/v1/ostream:740:9
	movq	-8(%rbp), %rdi
	movq	(%rdi), %rcx
	movq	-24(%rcx), %rcx
	addq	%rcx, %rdi
Ltmp176:
	movq	%rax, -152(%rbp)        ## 8-byte Spill
	.loc	17 740 14 is_stmt 0     ## /Applications/Xcode.app/Contents/Developer/Toolchains/XcodeDefault.xctoolchain/usr/bin/../include/c++/v1/ostream:740:14
	callq	__ZNSt3__18ios_base33__set_badbit_and_consider_rethrowEv
Ltmp177:
	jmp	LBB24_15
LBB24_15:
	.loc	17 741 5 is_stmt 1      ## /Applications/Xcode.app/Contents/Developer/Toolchains/XcodeDefault.xctoolchain/usr/bin/../include/c++/v1/ostream:741:5
	callq	___cxa_end_catch
Ltmp193:
LBB24_16:
	.loc	17 743 12               ## /Applications/Xcode.app/Contents/Developer/Toolchains/XcodeDefault.xctoolchain/usr/bin/../include/c++/v1/ostream:743:12
	movq	-8(%rbp), %rax
	.loc	17 743 5 is_stmt 0      ## /Applications/Xcode.app/Contents/Developer/Toolchains/XcodeDefault.xctoolchain/usr/bin/../include/c++/v1/ostream:743:5
	addq	$160, %rsp
	popq	%rbp
	retq
LBB24_17:
Ltmp194:
	.loc	17 735 9 is_stmt 1      ## /Applications/Xcode.app/Contents/Developer/Toolchains/XcodeDefault.xctoolchain/usr/bin/../include/c++/v1/ostream:735:9
	jmp	LBB24_18
Ltmp195:
LBB24_18:
	.loc	17 737 5                ## /Applications/Xcode.app/Contents/Developer/Toolchains/XcodeDefault.xctoolchain/usr/bin/../include/c++/v1/ostream:737:5
	leaq	-40(%rbp), %rdi
	callq	__ZNSt3__113basic_ostreamIcNS_11char_traitsIcEEE6sentryD1Ev
Ltmp196:
	.loc	17 737 5 is_stmt 0      ## /Applications/Xcode.app/Contents/Developer/Toolchains/XcodeDefault.xctoolchain/usr/bin/../include/c++/v1/ostream:737:5
	jmp	LBB24_16
Ltmp197:
LBB24_19:
Ltmp178:
	.loc	17 744 1 is_stmt 1      ## /Applications/Xcode.app/Contents/Developer/Toolchains/XcodeDefault.xctoolchain/usr/bin/../include/c++/v1/ostream:744:1
	movl	%edx, %ecx
	movq	%rax, -48(%rbp)
	movl	%ecx, -52(%rbp)
Ltmp179:
	.loc	17 741 5                ## /Applications/Xcode.app/Contents/Developer/Toolchains/XcodeDefault.xctoolchain/usr/bin/../include/c++/v1/ostream:741:5
	callq	___cxa_end_catch
Ltmp180:
	jmp	LBB24_20
LBB24_20:
	jmp	LBB24_21
LBB24_21:
	movq	-48(%rbp), %rdi
	callq	__Unwind_Resume
	ud2
LBB24_22:
Ltmp181:
	movq	%rax, %rdi
	movq	%rdx, -160(%rbp)        ## 8-byte Spill
	callq	___clang_call_terminate
Ltmp198:
Lfunc_end24:
	.cfi_endproc
	.section	__TEXT,__gcc_except_tab
	.p2align	2
GCC_except_table24:
Lexception4:
	.byte	255                     ## @LPStart Encoding = omit
	.byte	155                     ## @TType Encoding = indirect pcrel sdata4
	.uleb128 Lttbase1-Lttbaseref1
Lttbaseref1:
	.byte	1                       ## Call site Encoding = uleb128
	.uleb128 Lcst_end4-Lcst_begin4
Lcst_begin4:
	.uleb128 Ltmp162-Lfunc_begin24  ## >> Call Site 1 <<
	.uleb128 Ltmp163-Ltmp162        ##   Call between Ltmp162 and Ltmp163
	.uleb128 Ltmp164-Lfunc_begin24  ##     jumps to Ltmp164
	.byte	1                       ##   On action: 1
	.uleb128 Ltmp165-Lfunc_begin24  ## >> Call Site 2 <<
	.uleb128 Ltmp174-Ltmp165        ##   Call between Ltmp165 and Ltmp174
	.uleb128 Ltmp175-Lfunc_begin24  ##     jumps to Ltmp175
	.byte	1                       ##   On action: 1
	.uleb128 Ltmp174-Lfunc_begin24  ## >> Call Site 3 <<
	.uleb128 Ltmp176-Ltmp174        ##   Call between Ltmp174 and Ltmp176
	.byte	0                       ##     has no landing pad
	.byte	0                       ##   On action: cleanup
	.uleb128 Ltmp176-Lfunc_begin24  ## >> Call Site 4 <<
	.uleb128 Ltmp177-Ltmp176        ##   Call between Ltmp176 and Ltmp177
	.uleb128 Ltmp178-Lfunc_begin24  ##     jumps to Ltmp178
	.byte	0                       ##   On action: cleanup
	.uleb128 Ltmp177-Lfunc_begin24  ## >> Call Site 5 <<
	.uleb128 Ltmp179-Ltmp177        ##   Call between Ltmp177 and Ltmp179
	.byte	0                       ##     has no landing pad
	.byte	0                       ##   On action: cleanup
	.uleb128 Ltmp179-Lfunc_begin24  ## >> Call Site 6 <<
	.uleb128 Ltmp180-Ltmp179        ##   Call between Ltmp179 and Ltmp180
	.uleb128 Ltmp181-Lfunc_begin24  ##     jumps to Ltmp181
	.byte	1                       ##   On action: 1
	.uleb128 Ltmp180-Lfunc_begin24  ## >> Call Site 7 <<
	.uleb128 Lfunc_end24-Ltmp180    ##   Call between Ltmp180 and Lfunc_end24
	.byte	0                       ##     has no landing pad
	.byte	0                       ##   On action: cleanup
Lcst_end4:
	.byte	1                       ## >> Action Record 1 <<
                                        ##   Catch TypeInfo 1
	.byte	0                       ##   No further actions
	.p2align	2
                                        ## >> Catch TypeInfos <<
	.long	0                       ## TypeInfo 1
Lttbase1:
	.p2align	2
                                        ## -- End function
	.section	__TEXT,__text,regular,pure_instructions
	.globl	__ZNSt3__111char_traitsIcE6lengthEPKc ## -- Begin function _ZNSt3__111char_traitsIcE6lengthEPKc
	.weak_definition	__ZNSt3__111char_traitsIcE6lengthEPKc
	.p2align	4, 0x90
__ZNSt3__111char_traitsIcE6lengthEPKc:  ## @_ZNSt3__111char_traitsIcE6lengthEPKc
Lfunc_begin25:
	.loc	11 218 0                ## /Applications/Xcode.app/Contents/Developer/Toolchains/XcodeDefault.xctoolchain/usr/bin/../include/c++/v1/__string:218:0
	.cfi_startproc
## %bb.0:
	pushq	%rbp
	.cfi_def_cfa_offset 16
	.cfi_offset %rbp, -16
	movq	%rsp, %rbp
	.cfi_def_cfa_register %rbp
	subq	$16, %rsp
	movq	%rdi, -8(%rbp)
Ltmp199:
	.loc	11 218 68 prologue_end  ## /Applications/Xcode.app/Contents/Developer/Toolchains/XcodeDefault.xctoolchain/usr/bin/../include/c++/v1/__string:218:68
	movq	-8(%rbp), %rdi
	.loc	11 218 51 is_stmt 0     ## /Applications/Xcode.app/Contents/Developer/Toolchains/XcodeDefault.xctoolchain/usr/bin/../include/c++/v1/__string:218:51
	callq	_strlen
	.loc	11 218 44               ## /Applications/Xcode.app/Contents/Developer/Toolchains/XcodeDefault.xctoolchain/usr/bin/../include/c++/v1/__string:218:44
	addq	$16, %rsp
	popq	%rbp
	retq
Ltmp200:
Lfunc_end25:
	.cfi_endproc
                                        ## -- End function
	.p2align	4, 0x90         ## -- Begin function _ZNKSt3__113basic_ostreamIcNS_11char_traitsIcEEE6sentrycvbEv
__ZNKSt3__113basic_ostreamIcNS_11char_traitsIcEEE6sentrycvbEv: ## @_ZNKSt3__113basic_ostreamIcNS_11char_traitsIcEEE6sentrycvbEv
Lfunc_begin26:
	.loc	17 255 0 is_stmt 1      ## /Applications/Xcode.app/Contents/Developer/Toolchains/XcodeDefault.xctoolchain/usr/bin/../include/c++/v1/ostream:255:0
	.cfi_startproc
## %bb.0:
	pushq	%rbp
	.cfi_def_cfa_offset 16
	.cfi_offset %rbp, -16
	movq	%rsp, %rbp
	.cfi_def_cfa_register %rbp
	movq	%rdi, -8(%rbp)
	movq	-8(%rbp), %rdi
Ltmp201:
	.loc	17 255 39 prologue_end  ## /Applications/Xcode.app/Contents/Developer/Toolchains/XcodeDefault.xctoolchain/usr/bin/../include/c++/v1/ostream:255:39
	movb	(%rdi), %al
	.loc	17 255 32 is_stmt 0     ## /Applications/Xcode.app/Contents/Developer/Toolchains/XcodeDefault.xctoolchain/usr/bin/../include/c++/v1/ostream:255:32
	andb	$1, %al
	movzbl	%al, %eax
	popq	%rbp
	retq
Ltmp202:
Lfunc_end26:
	.cfi_endproc
                                        ## -- End function
	.private_extern	__ZNSt3__116__pad_and_outputIcNS_11char_traitsIcEEEENS_19ostreambuf_iteratorIT_T0_EES6_PKS4_S8_S8_RNS_8ios_baseES4_ ## -- Begin function _ZNSt3__116__pad_and_outputIcNS_11char_traitsIcEEEENS_19ostreambuf_iteratorIT_T0_EES6_PKS4_S8_S8_RNS_8ios_baseES4_
	.globl	__ZNSt3__116__pad_and_outputIcNS_11char_traitsIcEEEENS_19ostreambuf_iteratorIT_T0_EES6_PKS4_S8_S8_RNS_8ios_baseES4_
	.weak_definition	__ZNSt3__116__pad_and_outputIcNS_11char_traitsIcEEEENS_19ostreambuf_iteratorIT_T0_EES6_PKS4_S8_S8_RNS_8ios_baseES4_
	.p2align	4, 0x90
__ZNSt3__116__pad_and_outputIcNS_11char_traitsIcEEEENS_19ostreambuf_iteratorIT_T0_EES6_PKS4_S8_S8_RNS_8ios_baseES4_: ## @_ZNSt3__116__pad_and_outputIcNS_11char_traitsIcEEEENS_19ostreambuf_iteratorIT_T0_EES6_PKS4_S8_S8_RNS_8ios_baseES4_
Lfunc_begin27:
	.file	63 "/Applications/Xcode.app/Contents/Developer/Toolchains/XcodeDefault.xctoolchain/usr/bin/../include/c++/v1" "locale"
	.loc	63 1386 0 is_stmt 1     ## /Applications/Xcode.app/Contents/Developer/Toolchains/XcodeDefault.xctoolchain/usr/bin/../include/c++/v1/locale:1386:0
	.cfi_startproc
	.cfi_personality 155, ___gxx_personality_v0
	.cfi_lsda 16, Lexception5
## %bb.0:
	pushq	%rbp
	.cfi_def_cfa_offset 16
	.cfi_offset %rbp, -16
	movq	%rsp, %rbp
	.cfi_def_cfa_register %rbp
	subq	$160, %rsp
	movb	%r9b, %al
	movq	%rdi, -16(%rbp)
	movq	%rsi, -24(%rbp)
	movq	%rdx, -32(%rbp)
	movq	%rcx, -40(%rbp)
	movq	%r8, -48(%rbp)
	movb	%al, -49(%rbp)
Ltmp206:
	.loc	63 1387 21 prologue_end ## /Applications/Xcode.app/Contents/Developer/Toolchains/XcodeDefault.xctoolchain/usr/bin/../include/c++/v1/locale:1387:21
	cmpq	$0, -16(%rbp)
Ltmp207:
	.loc	63 1387 9 is_stmt 0     ## /Applications/Xcode.app/Contents/Developer/Toolchains/XcodeDefault.xctoolchain/usr/bin/../include/c++/v1/locale:1387:9
	jne	LBB27_2
## %bb.1:
Ltmp208:
	.loc	63 1388 16 is_stmt 1    ## /Applications/Xcode.app/Contents/Developer/Toolchains/XcodeDefault.xctoolchain/usr/bin/../include/c++/v1/locale:1388:16
	movq	-16(%rbp), %rax
	movq	%rax, -8(%rbp)
	.loc	63 1388 9 is_stmt 0     ## /Applications/Xcode.app/Contents/Developer/Toolchains/XcodeDefault.xctoolchain/usr/bin/../include/c++/v1/locale:1388:9
	jmp	LBB27_22
Ltmp209:
LBB27_2:
	.loc	63 1389 23 is_stmt 1    ## /Applications/Xcode.app/Contents/Developer/Toolchains/XcodeDefault.xctoolchain/usr/bin/../include/c++/v1/locale:1389:23
	movq	-40(%rbp), %rax
	.loc	63 1389 30 is_stmt 0    ## /Applications/Xcode.app/Contents/Developer/Toolchains/XcodeDefault.xctoolchain/usr/bin/../include/c++/v1/locale:1389:30
	movq	-24(%rbp), %rcx
	.loc	63 1389 28              ## /Applications/Xcode.app/Contents/Developer/Toolchains/XcodeDefault.xctoolchain/usr/bin/../include/c++/v1/locale:1389:28
	subq	%rcx, %rax
	.loc	63 1389 16              ## /Applications/Xcode.app/Contents/Developer/Toolchains/XcodeDefault.xctoolchain/usr/bin/../include/c++/v1/locale:1389:16
	movq	%rax, -64(%rbp)
	.loc	63 1390 23 is_stmt 1    ## /Applications/Xcode.app/Contents/Developer/Toolchains/XcodeDefault.xctoolchain/usr/bin/../include/c++/v1/locale:1390:23
	movq	-48(%rbp), %rdi
	.loc	63 1390 29 is_stmt 0    ## /Applications/Xcode.app/Contents/Developer/Toolchains/XcodeDefault.xctoolchain/usr/bin/../include/c++/v1/locale:1390:29
	callq	__ZNKSt3__18ios_base5widthEv
	.loc	63 1390 16              ## /Applications/Xcode.app/Contents/Developer/Toolchains/XcodeDefault.xctoolchain/usr/bin/../include/c++/v1/locale:1390:16
	movq	%rax, -72(%rbp)
Ltmp210:
	.loc	63 1391 9 is_stmt 1     ## /Applications/Xcode.app/Contents/Developer/Toolchains/XcodeDefault.xctoolchain/usr/bin/../include/c++/v1/locale:1391:9
	movq	-72(%rbp), %rax
	.loc	63 1391 14 is_stmt 0    ## /Applications/Xcode.app/Contents/Developer/Toolchains/XcodeDefault.xctoolchain/usr/bin/../include/c++/v1/locale:1391:14
	cmpq	-64(%rbp), %rax
Ltmp211:
	.loc	63 1391 9               ## /Applications/Xcode.app/Contents/Developer/Toolchains/XcodeDefault.xctoolchain/usr/bin/../include/c++/v1/locale:1391:9
	jle	LBB27_4
## %bb.3:
Ltmp212:
	.loc	63 1392 17 is_stmt 1    ## /Applications/Xcode.app/Contents/Developer/Toolchains/XcodeDefault.xctoolchain/usr/bin/../include/c++/v1/locale:1392:17
	movq	-64(%rbp), %rax
	.loc	63 1392 14 is_stmt 0    ## /Applications/Xcode.app/Contents/Developer/Toolchains/XcodeDefault.xctoolchain/usr/bin/../include/c++/v1/locale:1392:14
	movq	-72(%rbp), %rcx
	subq	%rax, %rcx
	movq	%rcx, -72(%rbp)
	.loc	63 1392 9               ## /Applications/Xcode.app/Contents/Developer/Toolchains/XcodeDefault.xctoolchain/usr/bin/../include/c++/v1/locale:1392:9
	jmp	LBB27_5
LBB27_4:
	.loc	63 1394 14 is_stmt 1    ## /Applications/Xcode.app/Contents/Developer/Toolchains/XcodeDefault.xctoolchain/usr/bin/../include/c++/v1/locale:1394:14
	movq	$0, -72(%rbp)
Ltmp213:
LBB27_5:
	.loc	63 1395 23              ## /Applications/Xcode.app/Contents/Developer/Toolchains/XcodeDefault.xctoolchain/usr/bin/../include/c++/v1/locale:1395:23
	movq	-32(%rbp), %rax
	.loc	63 1395 30 is_stmt 0    ## /Applications/Xcode.app/Contents/Developer/Toolchains/XcodeDefault.xctoolchain/usr/bin/../include/c++/v1/locale:1395:30
	movq	-24(%rbp), %rcx
	.loc	63 1395 28              ## /Applications/Xcode.app/Contents/Developer/Toolchains/XcodeDefault.xctoolchain/usr/bin/../include/c++/v1/locale:1395:28
	subq	%rcx, %rax
	.loc	63 1395 16              ## /Applications/Xcode.app/Contents/Developer/Toolchains/XcodeDefault.xctoolchain/usr/bin/../include/c++/v1/locale:1395:16
	movq	%rax, -80(%rbp)
Ltmp214:
	.loc	63 1396 14 is_stmt 1    ## /Applications/Xcode.app/Contents/Developer/Toolchains/XcodeDefault.xctoolchain/usr/bin/../include/c++/v1/locale:1396:14
	cmpq	$0, -80(%rbp)
Ltmp215:
	.loc	63 1396 9 is_stmt 0     ## /Applications/Xcode.app/Contents/Developer/Toolchains/XcodeDefault.xctoolchain/usr/bin/../include/c++/v1/locale:1396:9
	jle	LBB27_9
## %bb.6:
Ltmp216:
	.loc	63 1398 17 is_stmt 1    ## /Applications/Xcode.app/Contents/Developer/Toolchains/XcodeDefault.xctoolchain/usr/bin/../include/c++/v1/locale:1398:17
	movq	-16(%rbp), %rdi
	.loc	63 1398 32 is_stmt 0    ## /Applications/Xcode.app/Contents/Developer/Toolchains/XcodeDefault.xctoolchain/usr/bin/../include/c++/v1/locale:1398:32
	movq	-24(%rbp), %rsi
	.loc	63 1398 38              ## /Applications/Xcode.app/Contents/Developer/Toolchains/XcodeDefault.xctoolchain/usr/bin/../include/c++/v1/locale:1398:38
	movq	-80(%rbp), %rdx
	.loc	63 1398 26              ## /Applications/Xcode.app/Contents/Developer/Toolchains/XcodeDefault.xctoolchain/usr/bin/../include/c++/v1/locale:1398:26
	callq	__ZNSt3__115basic_streambufIcNS_11char_traitsIcEEE5sputnEPKcl
	.loc	63 1398 44              ## /Applications/Xcode.app/Contents/Developer/Toolchains/XcodeDefault.xctoolchain/usr/bin/../include/c++/v1/locale:1398:44
	cmpq	-80(%rbp), %rax
Ltmp217:
	.loc	63 1398 13              ## /Applications/Xcode.app/Contents/Developer/Toolchains/XcodeDefault.xctoolchain/usr/bin/../include/c++/v1/locale:1398:13
	je	LBB27_8
## %bb.7:
Ltmp218:
	.loc	63 1400 25 is_stmt 1    ## /Applications/Xcode.app/Contents/Developer/Toolchains/XcodeDefault.xctoolchain/usr/bin/../include/c++/v1/locale:1400:25
	movq	$0, -16(%rbp)
	.loc	63 1401 20              ## /Applications/Xcode.app/Contents/Developer/Toolchains/XcodeDefault.xctoolchain/usr/bin/../include/c++/v1/locale:1401:20
	movq	-16(%rbp), %rax
	movq	%rax, -8(%rbp)
	.loc	63 1401 13 is_stmt 0    ## /Applications/Xcode.app/Contents/Developer/Toolchains/XcodeDefault.xctoolchain/usr/bin/../include/c++/v1/locale:1401:13
	jmp	LBB27_22
Ltmp219:
LBB27_8:
	.loc	63 1403 5 is_stmt 1     ## /Applications/Xcode.app/Contents/Developer/Toolchains/XcodeDefault.xctoolchain/usr/bin/../include/c++/v1/locale:1403:5
	jmp	LBB27_9
Ltmp220:
LBB27_9:
	.loc	63 1404 14              ## /Applications/Xcode.app/Contents/Developer/Toolchains/XcodeDefault.xctoolchain/usr/bin/../include/c++/v1/locale:1404:14
	cmpq	$0, -72(%rbp)
Ltmp221:
	.loc	63 1404 9 is_stmt 0     ## /Applications/Xcode.app/Contents/Developer/Toolchains/XcodeDefault.xctoolchain/usr/bin/../include/c++/v1/locale:1404:9
	jle	LBB27_17
## %bb.10:
Ltmp222:
	.loc	63 1406 44 is_stmt 1    ## /Applications/Xcode.app/Contents/Developer/Toolchains/XcodeDefault.xctoolchain/usr/bin/../include/c++/v1/locale:1406:44
	movq	-72(%rbp), %rsi
	.loc	63 1406 50 is_stmt 0    ## /Applications/Xcode.app/Contents/Developer/Toolchains/XcodeDefault.xctoolchain/usr/bin/../include/c++/v1/locale:1406:50
	movsbl	-49(%rbp), %edx
	leaq	-104(%rbp), %rax
	.loc	63 1406 39              ## /Applications/Xcode.app/Contents/Developer/Toolchains/XcodeDefault.xctoolchain/usr/bin/../include/c++/v1/locale:1406:39
	movq	%rax, %rdi
	movq	%rax, -128(%rbp)        ## 8-byte Spill
	callq	__ZNSt3__112basic_stringIcNS_11char_traitsIcEENS_9allocatorIcEEEC1Emc
Ltmp223:
	.loc	63 1407 17 is_stmt 1    ## /Applications/Xcode.app/Contents/Developer/Toolchains/XcodeDefault.xctoolchain/usr/bin/../include/c++/v1/locale:1407:17
	movq	-16(%rbp), %rdi
	movq	-128(%rbp), %rax        ## 8-byte Reload
	movq	%rdi, -136(%rbp)        ## 8-byte Spill
	.loc	63 1407 37 is_stmt 0    ## /Applications/Xcode.app/Contents/Developer/Toolchains/XcodeDefault.xctoolchain/usr/bin/../include/c++/v1/locale:1407:37
	movq	%rax, %rdi
	callq	__ZNSt3__112basic_stringIcNS_11char_traitsIcEENS_9allocatorIcEEE4dataEv
	.loc	63 1407 45              ## /Applications/Xcode.app/Contents/Developer/Toolchains/XcodeDefault.xctoolchain/usr/bin/../include/c++/v1/locale:1407:45
	movq	-72(%rbp), %rdx
Ltmp203:
	movq	-136(%rbp), %rdi        ## 8-byte Reload
	.loc	63 1407 26              ## /Applications/Xcode.app/Contents/Developer/Toolchains/XcodeDefault.xctoolchain/usr/bin/../include/c++/v1/locale:1407:26
	movq	%rax, %rsi
	callq	__ZNSt3__115basic_streambufIcNS_11char_traitsIcEEE5sputnEPKcl
Ltmp204:
	movq	%rax, -144(%rbp)        ## 8-byte Spill
	jmp	LBB27_11
LBB27_11:
	.loc	63 0 26                 ## /Applications/Xcode.app/Contents/Developer/Toolchains/XcodeDefault.xctoolchain/usr/bin/../include/c++/v1/locale:0:26
	movq	-144(%rbp), %rax        ## 8-byte Reload
	.loc	63 1407 51              ## /Applications/Xcode.app/Contents/Developer/Toolchains/XcodeDefault.xctoolchain/usr/bin/../include/c++/v1/locale:1407:51
	cmpq	-72(%rbp), %rax
Ltmp224:
	.loc	63 1407 13              ## /Applications/Xcode.app/Contents/Developer/Toolchains/XcodeDefault.xctoolchain/usr/bin/../include/c++/v1/locale:1407:13
	je	LBB27_14
## %bb.12:
Ltmp225:
	.loc	63 1409 25 is_stmt 1    ## /Applications/Xcode.app/Contents/Developer/Toolchains/XcodeDefault.xctoolchain/usr/bin/../include/c++/v1/locale:1409:25
	movq	$0, -16(%rbp)
	.loc	63 1410 20              ## /Applications/Xcode.app/Contents/Developer/Toolchains/XcodeDefault.xctoolchain/usr/bin/../include/c++/v1/locale:1410:20
	movq	-16(%rbp), %rax
	movq	%rax, -8(%rbp)
	movl	$1, -120(%rbp)
	.loc	63 1410 13 is_stmt 0    ## /Applications/Xcode.app/Contents/Developer/Toolchains/XcodeDefault.xctoolchain/usr/bin/../include/c++/v1/locale:1410:13
	jmp	LBB27_15
Ltmp226:
LBB27_13:
Ltmp205:
	.loc	63 1424 1 is_stmt 1     ## /Applications/Xcode.app/Contents/Developer/Toolchains/XcodeDefault.xctoolchain/usr/bin/../include/c++/v1/locale:1424:1
	movl	%edx, %ecx
	movq	%rax, -112(%rbp)
	movl	%ecx, -116(%rbp)
Ltmp227:
	.loc	63 1412 5               ## /Applications/Xcode.app/Contents/Developer/Toolchains/XcodeDefault.xctoolchain/usr/bin/../include/c++/v1/locale:1412:5
	leaq	-104(%rbp), %rdi
	callq	__ZNSt3__112basic_stringIcNS_11char_traitsIcEENS_9allocatorIcEEED1Ev
	jmp	LBB27_23
LBB27_14:
	movl	$0, -120(%rbp)
LBB27_15:
	.loc	63 0 5 is_stmt 0        ## /Applications/Xcode.app/Contents/Developer/Toolchains/XcodeDefault.xctoolchain/usr/bin/../include/c++/v1/locale:0:5
	leaq	-104(%rbp), %rdi
	.loc	63 1412 5               ## /Applications/Xcode.app/Contents/Developer/Toolchains/XcodeDefault.xctoolchain/usr/bin/../include/c++/v1/locale:1412:5
	callq	__ZNSt3__112basic_stringIcNS_11char_traitsIcEENS_9allocatorIcEEED1Ev
	movl	-120(%rbp), %eax
	testl	%eax, %eax
	movl	%eax, -148(%rbp)        ## 4-byte Spill
	je	LBB27_16
	jmp	LBB27_25
LBB27_25:
	.loc	63 0 5                  ## /Applications/Xcode.app/Contents/Developer/Toolchains/XcodeDefault.xctoolchain/usr/bin/../include/c++/v1/locale:0:5
	movl	-148(%rbp), %eax        ## 4-byte Reload
	subl	$1, %eax
	movl	%eax, -152(%rbp)        ## 4-byte Spill
	je	LBB27_22
	jmp	LBB27_24
LBB27_16:
Ltmp228:
	.loc	63 1412 5               ## /Applications/Xcode.app/Contents/Developer/Toolchains/XcodeDefault.xctoolchain/usr/bin/../include/c++/v1/locale:1412:5
	jmp	LBB27_17
Ltmp229:
LBB27_17:
	.loc	63 1413 12 is_stmt 1    ## /Applications/Xcode.app/Contents/Developer/Toolchains/XcodeDefault.xctoolchain/usr/bin/../include/c++/v1/locale:1413:12
	movq	-40(%rbp), %rax
	.loc	63 1413 19 is_stmt 0    ## /Applications/Xcode.app/Contents/Developer/Toolchains/XcodeDefault.xctoolchain/usr/bin/../include/c++/v1/locale:1413:19
	movq	-32(%rbp), %rcx
	.loc	63 1413 17              ## /Applications/Xcode.app/Contents/Developer/Toolchains/XcodeDefault.xctoolchain/usr/bin/../include/c++/v1/locale:1413:17
	subq	%rcx, %rax
	.loc	63 1413 10              ## /Applications/Xcode.app/Contents/Developer/Toolchains/XcodeDefault.xctoolchain/usr/bin/../include/c++/v1/locale:1413:10
	movq	%rax, -80(%rbp)
Ltmp230:
	.loc	63 1414 14 is_stmt 1    ## /Applications/Xcode.app/Contents/Developer/Toolchains/XcodeDefault.xctoolchain/usr/bin/../include/c++/v1/locale:1414:14
	cmpq	$0, -80(%rbp)
Ltmp231:
	.loc	63 1414 9 is_stmt 0     ## /Applications/Xcode.app/Contents/Developer/Toolchains/XcodeDefault.xctoolchain/usr/bin/../include/c++/v1/locale:1414:9
	jle	LBB27_21
## %bb.18:
Ltmp232:
	.loc	63 1416 17 is_stmt 1    ## /Applications/Xcode.app/Contents/Developer/Toolchains/XcodeDefault.xctoolchain/usr/bin/../include/c++/v1/locale:1416:17
	movq	-16(%rbp), %rdi
	.loc	63 1416 32 is_stmt 0    ## /Applications/Xcode.app/Contents/Developer/Toolchains/XcodeDefault.xctoolchain/usr/bin/../include/c++/v1/locale:1416:32
	movq	-32(%rbp), %rsi
	.loc	63 1416 38              ## /Applications/Xcode.app/Contents/Developer/Toolchains/XcodeDefault.xctoolchain/usr/bin/../include/c++/v1/locale:1416:38
	movq	-80(%rbp), %rdx
	.loc	63 1416 26              ## /Applications/Xcode.app/Contents/Developer/Toolchains/XcodeDefault.xctoolchain/usr/bin/../include/c++/v1/locale:1416:26
	callq	__ZNSt3__115basic_streambufIcNS_11char_traitsIcEEE5sputnEPKcl
	.loc	63 1416 44              ## /Applications/Xcode.app/Contents/Developer/Toolchains/XcodeDefault.xctoolchain/usr/bin/../include/c++/v1/locale:1416:44
	cmpq	-80(%rbp), %rax
Ltmp233:
	.loc	63 1416 13              ## /Applications/Xcode.app/Contents/Developer/Toolchains/XcodeDefault.xctoolchain/usr/bin/../include/c++/v1/locale:1416:13
	je	LBB27_20
## %bb.19:
Ltmp234:
	.loc	63 1418 25 is_stmt 1    ## /Applications/Xcode.app/Contents/Developer/Toolchains/XcodeDefault.xctoolchain/usr/bin/../include/c++/v1/locale:1418:25
	movq	$0, -16(%rbp)
	.loc	63 1419 20              ## /Applications/Xcode.app/Contents/Developer/Toolchains/XcodeDefault.xctoolchain/usr/bin/../include/c++/v1/locale:1419:20
	movq	-16(%rbp), %rax
	movq	%rax, -8(%rbp)
	.loc	63 1419 13 is_stmt 0    ## /Applications/Xcode.app/Contents/Developer/Toolchains/XcodeDefault.xctoolchain/usr/bin/../include/c++/v1/locale:1419:13
	jmp	LBB27_22
Ltmp235:
LBB27_20:
	.loc	63 1421 5 is_stmt 1     ## /Applications/Xcode.app/Contents/Developer/Toolchains/XcodeDefault.xctoolchain/usr/bin/../include/c++/v1/locale:1421:5
	jmp	LBB27_21
Ltmp236:
LBB27_21:
	.loc	63 0 5 is_stmt 0        ## /Applications/Xcode.app/Contents/Developer/Toolchains/XcodeDefault.xctoolchain/usr/bin/../include/c++/v1/locale:0:5
	xorl	%eax, %eax
	movl	%eax, %esi
	.loc	63 1422 5 is_stmt 1     ## /Applications/Xcode.app/Contents/Developer/Toolchains/XcodeDefault.xctoolchain/usr/bin/../include/c++/v1/locale:1422:5
	movq	-48(%rbp), %rdi
	.loc	63 1422 11 is_stmt 0    ## /Applications/Xcode.app/Contents/Developer/Toolchains/XcodeDefault.xctoolchain/usr/bin/../include/c++/v1/locale:1422:11
	callq	__ZNSt3__18ios_base5widthEl
	.loc	63 1423 12 is_stmt 1    ## /Applications/Xcode.app/Contents/Developer/Toolchains/XcodeDefault.xctoolchain/usr/bin/../include/c++/v1/locale:1423:12
	movq	-16(%rbp), %rsi
	movq	%rsi, -8(%rbp)
	movq	%rax, -160(%rbp)        ## 8-byte Spill
LBB27_22:
	.loc	63 1424 1               ## /Applications/Xcode.app/Contents/Developer/Toolchains/XcodeDefault.xctoolchain/usr/bin/../include/c++/v1/locale:1424:1
	movq	-8(%rbp), %rax
	addq	$160, %rsp
	popq	%rbp
	retq
LBB27_23:
Ltmp237:
	.loc	63 1412 5               ## /Applications/Xcode.app/Contents/Developer/Toolchains/XcodeDefault.xctoolchain/usr/bin/../include/c++/v1/locale:1412:5
	movq	-112(%rbp), %rdi
	callq	__Unwind_Resume
	ud2
Ltmp238:
LBB27_24:
	.loc	63 0 5 is_stmt 0        ## /Applications/Xcode.app/Contents/Developer/Toolchains/XcodeDefault.xctoolchain/usr/bin/../include/c++/v1/locale:0:5
	ud2
Lfunc_end27:
	.cfi_endproc
	.section	__TEXT,__gcc_except_tab
	.p2align	2
GCC_except_table27:
Lexception5:
	.byte	255                     ## @LPStart Encoding = omit
	.byte	255                     ## @TType Encoding = omit
	.byte	1                       ## Call site Encoding = uleb128
	.uleb128 Lcst_end5-Lcst_begin5
Lcst_begin5:
	.uleb128 Lfunc_begin27-Lfunc_begin27 ## >> Call Site 1 <<
	.uleb128 Ltmp203-Lfunc_begin27  ##   Call between Lfunc_begin27 and Ltmp203
	.byte	0                       ##     has no landing pad
	.byte	0                       ##   On action: cleanup
	.uleb128 Ltmp203-Lfunc_begin27  ## >> Call Site 2 <<
	.uleb128 Ltmp204-Ltmp203        ##   Call between Ltmp203 and Ltmp204
	.uleb128 Ltmp205-Lfunc_begin27  ##     jumps to Ltmp205
	.byte	0                       ##   On action: cleanup
	.uleb128 Ltmp204-Lfunc_begin27  ## >> Call Site 3 <<
	.uleb128 Lfunc_end27-Ltmp204    ##   Call between Ltmp204 and Lfunc_end27
	.byte	0                       ##     has no landing pad
	.byte	0                       ##   On action: cleanup
Lcst_end5:
	.p2align	2
                                        ## -- End function
	.section	__TEXT,__text,regular,pure_instructions
	.p2align	4, 0x90         ## -- Begin function _ZNSt3__119ostreambuf_iteratorIcNS_11char_traitsIcEEEC1ERNS_13basic_ostreamIcS2_EE
__ZNSt3__119ostreambuf_iteratorIcNS_11char_traitsIcEEEC1ERNS_13basic_ostreamIcS2_EE: ## @_ZNSt3__119ostreambuf_iteratorIcNS_11char_traitsIcEEEC1ERNS_13basic_ostreamIcS2_EE
Lfunc_begin28:
	.loc	15 1068 0 is_stmt 1     ## /Applications/Xcode.app/Contents/Developer/Toolchains/XcodeDefault.xctoolchain/usr/bin/../include/c++/v1/iterator:1068:0
	.cfi_startproc
## %bb.0:
	pushq	%rbp
	.cfi_def_cfa_offset 16
	.cfi_offset %rbp, -16
	movq	%rsp, %rbp
	.cfi_def_cfa_register %rbp
	subq	$16, %rsp
	movq	%rdi, -8(%rbp)
	movq	%rsi, -16(%rbp)
	movq	-8(%rbp), %rdi
Ltmp239:
	.loc	15 1068 32 prologue_end ## /Applications/Xcode.app/Contents/Developer/Toolchains/XcodeDefault.xctoolchain/usr/bin/../include/c++/v1/iterator:1068:32
	movq	-16(%rbp), %rsi
	callq	__ZNSt3__119ostreambuf_iteratorIcNS_11char_traitsIcEEEC2ERNS_13basic_ostreamIcS2_EE
	.loc	15 1068 33 is_stmt 0    ## /Applications/Xcode.app/Contents/Developer/Toolchains/XcodeDefault.xctoolchain/usr/bin/../include/c++/v1/iterator:1068:33
	addq	$16, %rsp
	popq	%rbp
	retq
Ltmp240:
Lfunc_end28:
	.cfi_endproc
                                        ## -- End function
	.p2align	4, 0x90         ## -- Begin function _ZNKSt3__18ios_base5flagsEv
__ZNKSt3__18ios_base5flagsEv:           ## @_ZNKSt3__18ios_base5flagsEv
Lfunc_begin29:
	.loc	1 460 0 is_stmt 1       ## /Applications/Xcode.app/Contents/Developer/Toolchains/XcodeDefault.xctoolchain/usr/bin/../include/c++/v1/ios:460:0
	.cfi_startproc
## %bb.0:
	pushq	%rbp
	.cfi_def_cfa_offset 16
	.cfi_offset %rbp, -16
	movq	%rsp, %rbp
	.cfi_def_cfa_register %rbp
	movq	%rdi, -8(%rbp)
	movq	-8(%rbp), %rdi
Ltmp241:
	.loc	1 461 12 prologue_end   ## /Applications/Xcode.app/Contents/Developer/Toolchains/XcodeDefault.xctoolchain/usr/bin/../include/c++/v1/ios:461:12
	movl	8(%rdi), %eax
	.loc	1 461 5 is_stmt 0       ## /Applications/Xcode.app/Contents/Developer/Toolchains/XcodeDefault.xctoolchain/usr/bin/../include/c++/v1/ios:461:5
	popq	%rbp
	retq
Ltmp242:
Lfunc_end29:
	.cfi_endproc
                                        ## -- End function
	.p2align	4, 0x90         ## -- Begin function _ZNKSt3__19basic_iosIcNS_11char_traitsIcEEE4fillEv
__ZNKSt3__19basic_iosIcNS_11char_traitsIcEEE4fillEv: ## @_ZNKSt3__19basic_iosIcNS_11char_traitsIcEEE4fillEv
Lfunc_begin30:
	.loc	1 785 0 is_stmt 1       ## /Applications/Xcode.app/Contents/Developer/Toolchains/XcodeDefault.xctoolchain/usr/bin/../include/c++/v1/ios:785:0
	.cfi_startproc
## %bb.0:
	pushq	%rbp
	.cfi_def_cfa_offset 16
	.cfi_offset %rbp, -16
	movq	%rsp, %rbp
	.cfi_def_cfa_register %rbp
	subq	$16, %rsp
	movq	%rdi, -8(%rbp)
	movq	-8(%rbp), %rdi
	movq	%rdi, -16(%rbp)         ## 8-byte Spill
Ltmp243:
	.loc	1 786 34 prologue_end   ## /Applications/Xcode.app/Contents/Developer/Toolchains/XcodeDefault.xctoolchain/usr/bin/../include/c++/v1/ios:786:34
	callq	__ZNSt3__111char_traitsIcE3eofEv
	movq	-16(%rbp), %rdi         ## 8-byte Reload
	.loc	1 786 54 is_stmt 0      ## /Applications/Xcode.app/Contents/Developer/Toolchains/XcodeDefault.xctoolchain/usr/bin/../include/c++/v1/ios:786:54
	movl	144(%rdi), %esi
	.loc	1 786 9                 ## /Applications/Xcode.app/Contents/Developer/Toolchains/XcodeDefault.xctoolchain/usr/bin/../include/c++/v1/ios:786:9
	movl	%eax, %edi
	callq	__ZNSt3__111char_traitsIcE11eq_int_typeEii
Ltmp244:
	.loc	1 786 9                 ## /Applications/Xcode.app/Contents/Developer/Toolchains/XcodeDefault.xctoolchain/usr/bin/../include/c++/v1/ios:786:9
	testb	$1, %al
	jne	LBB30_1
	jmp	LBB30_2
LBB30_1:
	.loc	1 0 9                   ## /Applications/Xcode.app/Contents/Developer/Toolchains/XcodeDefault.xctoolchain/usr/bin/../include/c++/v1/ios:0:9
	movq	-16(%rbp), %rdi         ## 8-byte Reload
Ltmp245:
	.loc	1 787 19 is_stmt 1      ## /Applications/Xcode.app/Contents/Developer/Toolchains/XcodeDefault.xctoolchain/usr/bin/../include/c++/v1/ios:787:19
	movl	$32, %esi
	callq	__ZNKSt3__19basic_iosIcNS_11char_traitsIcEEE5widenEc
	movsbl	%al, %esi
	movq	-16(%rbp), %rdi         ## 8-byte Reload
	.loc	1 787 17 is_stmt 0      ## /Applications/Xcode.app/Contents/Developer/Toolchains/XcodeDefault.xctoolchain/usr/bin/../include/c++/v1/ios:787:17
	movl	%esi, 144(%rdi)
Ltmp246:
LBB30_2:
	.loc	1 0 17                  ## /Applications/Xcode.app/Contents/Developer/Toolchains/XcodeDefault.xctoolchain/usr/bin/../include/c++/v1/ios:0:17
	movq	-16(%rbp), %rax         ## 8-byte Reload
	.loc	1 788 12 is_stmt 1      ## /Applications/Xcode.app/Contents/Developer/Toolchains/XcodeDefault.xctoolchain/usr/bin/../include/c++/v1/ios:788:12
	movl	144(%rax), %ecx
	movb	%cl, %dl
	.loc	1 788 5 is_stmt 0       ## /Applications/Xcode.app/Contents/Developer/Toolchains/XcodeDefault.xctoolchain/usr/bin/../include/c++/v1/ios:788:5
	movsbl	%dl, %ecx
	movl	%ecx, %eax
	addq	$16, %rsp
	popq	%rbp
	retq
Ltmp247:
Lfunc_end30:
	.cfi_endproc
                                        ## -- End function
	.p2align	4, 0x90         ## -- Begin function _ZNKSt3__119ostreambuf_iteratorIcNS_11char_traitsIcEEE6failedEv
__ZNKSt3__119ostreambuf_iteratorIcNS_11char_traitsIcEEE6failedEv: ## @_ZNKSt3__119ostreambuf_iteratorIcNS_11char_traitsIcEEE6failedEv
Lfunc_begin31:
	.loc	15 1080 0 is_stmt 1     ## /Applications/Xcode.app/Contents/Developer/Toolchains/XcodeDefault.xctoolchain/usr/bin/../include/c++/v1/iterator:1080:0
	.cfi_startproc
## %bb.0:
	pushq	%rbp
	.cfi_def_cfa_offset 16
	.cfi_offset %rbp, -16
	movq	%rsp, %rbp
	.cfi_def_cfa_register %rbp
	movq	%rdi, -8(%rbp)
	movq	-8(%rbp), %rdi
Ltmp248:
	.loc	15 1080 128 prologue_end ## /Applications/Xcode.app/Contents/Developer/Toolchains/XcodeDefault.xctoolchain/usr/bin/../include/c++/v1/iterator:1080:128
	cmpq	$0, (%rdi)
	sete	%al
	.loc	15 1080 113 is_stmt 0   ## /Applications/Xcode.app/Contents/Developer/Toolchains/XcodeDefault.xctoolchain/usr/bin/../include/c++/v1/iterator:1080:113
	andb	$1, %al
	movzbl	%al, %eax
	popq	%rbp
	retq
Ltmp249:
Lfunc_end31:
	.cfi_endproc
                                        ## -- End function
	.p2align	4, 0x90         ## -- Begin function _ZNSt3__19basic_iosIcNS_11char_traitsIcEEE8setstateEj
__ZNSt3__19basic_iosIcNS_11char_traitsIcEEE8setstateEj: ## @_ZNSt3__19basic_iosIcNS_11char_traitsIcEEE8setstateEj
Lfunc_begin32:
	.loc	1 633 0 is_stmt 1       ## /Applications/Xcode.app/Contents/Developer/Toolchains/XcodeDefault.xctoolchain/usr/bin/../include/c++/v1/ios:633:0
	.cfi_startproc
## %bb.0:
	pushq	%rbp
	.cfi_def_cfa_offset 16
	.cfi_offset %rbp, -16
	movq	%rsp, %rbp
	.cfi_def_cfa_register %rbp
	subq	$16, %rsp
	movq	%rdi, -8(%rbp)
	movl	%esi, -12(%rbp)
	movq	-8(%rbp), %rdi
Ltmp250:
	.loc	1 633 134 prologue_end  ## /Applications/Xcode.app/Contents/Developer/Toolchains/XcodeDefault.xctoolchain/usr/bin/../include/c++/v1/ios:633:134
	movl	-12(%rbp), %esi
	.loc	1 633 125 is_stmt 0     ## /Applications/Xcode.app/Contents/Developer/Toolchains/XcodeDefault.xctoolchain/usr/bin/../include/c++/v1/ios:633:125
	callq	__ZNSt3__18ios_base8setstateEj
	.loc	1 633 143               ## /Applications/Xcode.app/Contents/Developer/Toolchains/XcodeDefault.xctoolchain/usr/bin/../include/c++/v1/ios:633:143
	addq	$16, %rsp
	popq	%rbp
	retq
Ltmp251:
Lfunc_end32:
	.cfi_endproc
                                        ## -- End function
	.p2align	4, 0x90         ## -- Begin function _ZNKSt3__18ios_base5widthEv
__ZNKSt3__18ios_base5widthEv:           ## @_ZNKSt3__18ios_base5widthEv
Lfunc_begin33:
	.loc	1 522 0 is_stmt 1       ## /Applications/Xcode.app/Contents/Developer/Toolchains/XcodeDefault.xctoolchain/usr/bin/../include/c++/v1/ios:522:0
	.cfi_startproc
## %bb.0:
	pushq	%rbp
	.cfi_def_cfa_offset 16
	.cfi_offset %rbp, -16
	movq	%rsp, %rbp
	.cfi_def_cfa_register %rbp
	movq	%rdi, -8(%rbp)
	movq	-8(%rbp), %rdi
Ltmp252:
	.loc	1 523 12 prologue_end   ## /Applications/Xcode.app/Contents/Developer/Toolchains/XcodeDefault.xctoolchain/usr/bin/../include/c++/v1/ios:523:12
	movq	24(%rdi), %rax
	.loc	1 523 5 is_stmt 0       ## /Applications/Xcode.app/Contents/Developer/Toolchains/XcodeDefault.xctoolchain/usr/bin/../include/c++/v1/ios:523:5
	popq	%rbp
	retq
Ltmp253:
Lfunc_end33:
	.cfi_endproc
                                        ## -- End function
	.p2align	4, 0x90         ## -- Begin function _ZNSt3__115basic_streambufIcNS_11char_traitsIcEEE5sputnEPKcl
__ZNSt3__115basic_streambufIcNS_11char_traitsIcEEE5sputnEPKcl: ## @_ZNSt3__115basic_streambufIcNS_11char_traitsIcEEE5sputnEPKcl
Lfunc_begin34:
	.loc	16 230 0 is_stmt 1      ## /Applications/Xcode.app/Contents/Developer/Toolchains/XcodeDefault.xctoolchain/usr/bin/../include/c++/v1/streambuf:230:0
	.cfi_startproc
## %bb.0:
	pushq	%rbp
	.cfi_def_cfa_offset 16
	.cfi_offset %rbp, -16
	movq	%rsp, %rbp
	.cfi_def_cfa_register %rbp
	subq	$32, %rsp
	movq	%rdi, -8(%rbp)
	movq	%rsi, -16(%rbp)
	movq	%rdx, -24(%rbp)
	movq	-8(%rbp), %rdx
Ltmp254:
	.loc	16 230 21 prologue_end  ## /Applications/Xcode.app/Contents/Developer/Toolchains/XcodeDefault.xctoolchain/usr/bin/../include/c++/v1/streambuf:230:21
	movq	-16(%rbp), %rsi
	.loc	16 230 26 is_stmt 0     ## /Applications/Xcode.app/Contents/Developer/Toolchains/XcodeDefault.xctoolchain/usr/bin/../include/c++/v1/streambuf:230:26
	movq	-24(%rbp), %rdi
	.loc	16 230 14               ## /Applications/Xcode.app/Contents/Developer/Toolchains/XcodeDefault.xctoolchain/usr/bin/../include/c++/v1/streambuf:230:14
	movq	(%rdx), %rax
	movq	%rdi, -32(%rbp)         ## 8-byte Spill
	movq	%rdx, %rdi
	movq	-32(%rbp), %rdx         ## 8-byte Reload
	callq	*96(%rax)
	.loc	16 230 7                ## /Applications/Xcode.app/Contents/Developer/Toolchains/XcodeDefault.xctoolchain/usr/bin/../include/c++/v1/streambuf:230:7
	addq	$32, %rsp
	popq	%rbp
	retq
Ltmp255:
Lfunc_end34:
	.cfi_endproc
                                        ## -- End function
	.p2align	4, 0x90         ## -- Begin function _ZNSt3__112basic_stringIcNS_11char_traitsIcEENS_9allocatorIcEEEC1Emc
__ZNSt3__112basic_stringIcNS_11char_traitsIcEENS_9allocatorIcEEEC1Emc: ## @_ZNSt3__112basic_stringIcNS_11char_traitsIcEENS_9allocatorIcEEEC1Emc
Lfunc_begin35:
	.loc	6 1927 0 is_stmt 1      ## /Applications/Xcode.app/Contents/Developer/Toolchains/XcodeDefault.xctoolchain/usr/bin/../include/c++/v1/string:1927:0
	.cfi_startproc
## %bb.0:
	pushq	%rbp
	.cfi_def_cfa_offset 16
	.cfi_offset %rbp, -16
	movq	%rsp, %rbp
	.cfi_def_cfa_register %rbp
	subq	$32, %rsp
	movb	%dl, %al
	movq	%rdi, -8(%rbp)
	movq	%rsi, -16(%rbp)
	movb	%al, -17(%rbp)
	movq	-8(%rbp), %rdi
Ltmp256:
	.loc	6 1927 1 prologue_end   ## /Applications/Xcode.app/Contents/Developer/Toolchains/XcodeDefault.xctoolchain/usr/bin/../include/c++/v1/string:1927:1
	movq	-16(%rbp), %rsi
	movsbl	-17(%rbp), %edx
	callq	__ZNSt3__112basic_stringIcNS_11char_traitsIcEENS_9allocatorIcEEEC2Emc
	.loc	6 1932 1                ## /Applications/Xcode.app/Contents/Developer/Toolchains/XcodeDefault.xctoolchain/usr/bin/../include/c++/v1/string:1932:1
	addq	$32, %rsp
	popq	%rbp
	retq
Ltmp257:
Lfunc_end35:
	.cfi_endproc
                                        ## -- End function
	.p2align	4, 0x90         ## -- Begin function _ZNSt3__112basic_stringIcNS_11char_traitsIcEENS_9allocatorIcEEE4dataEv
__ZNSt3__112basic_stringIcNS_11char_traitsIcEENS_9allocatorIcEEE4dataEv: ## @_ZNSt3__112basic_stringIcNS_11char_traitsIcEENS_9allocatorIcEEE4dataEv
Lfunc_begin36:
	.loc	6 1246 0                ## /Applications/Xcode.app/Contents/Developer/Toolchains/XcodeDefault.xctoolchain/usr/bin/../include/c++/v1/string:1246:0
	.cfi_startproc
## %bb.0:
	pushq	%rbp
	.cfi_def_cfa_offset 16
	.cfi_offset %rbp, -16
	movq	%rsp, %rbp
	.cfi_def_cfa_register %rbp
	subq	$16, %rsp
	movq	%rdi, -8(%rbp)
	movq	-8(%rbp), %rdi
Ltmp258:
	.loc	6 1246 68 prologue_end  ## /Applications/Xcode.app/Contents/Developer/Toolchains/XcodeDefault.xctoolchain/usr/bin/../include/c++/v1/string:1246:68
	callq	__ZNSt3__112basic_stringIcNS_11char_traitsIcEENS_9allocatorIcEEE13__get_pointerEv
	.loc	6 1246 41 is_stmt 0     ## /Applications/Xcode.app/Contents/Developer/Toolchains/XcodeDefault.xctoolchain/usr/bin/../include/c++/v1/string:1246:41
	movq	%rax, %rdi
	callq	__ZNSt3__1L16__to_raw_pointerIcEEPT_S2_
	.loc	6 1246 34               ## /Applications/Xcode.app/Contents/Developer/Toolchains/XcodeDefault.xctoolchain/usr/bin/../include/c++/v1/string:1246:34
	addq	$16, %rsp
	popq	%rbp
	retq
Ltmp259:
Lfunc_end36:
	.cfi_endproc
                                        ## -- End function
	.p2align	4, 0x90         ## -- Begin function _ZNSt3__18ios_base5widthEl
__ZNSt3__18ios_base5widthEl:            ## @_ZNSt3__18ios_base5widthEl
Lfunc_begin37:
	.loc	1 529 0 is_stmt 1       ## /Applications/Xcode.app/Contents/Developer/Toolchains/XcodeDefault.xctoolchain/usr/bin/../include/c++/v1/ios:529:0
	.cfi_startproc
## %bb.0:
	pushq	%rbp
	.cfi_def_cfa_offset 16
	.cfi_offset %rbp, -16
	movq	%rsp, %rbp
	.cfi_def_cfa_register %rbp
	movq	%rdi, -8(%rbp)
	movq	%rsi, -16(%rbp)
	movq	-8(%rbp), %rsi
Ltmp260:
	.loc	1 530 22 prologue_end   ## /Applications/Xcode.app/Contents/Developer/Toolchains/XcodeDefault.xctoolchain/usr/bin/../include/c++/v1/ios:530:22
	movq	24(%rsi), %rdi
	.loc	1 530 16 is_stmt 0      ## /Applications/Xcode.app/Contents/Developer/Toolchains/XcodeDefault.xctoolchain/usr/bin/../include/c++/v1/ios:530:16
	movq	%rdi, -24(%rbp)
	.loc	1 531 16 is_stmt 1      ## /Applications/Xcode.app/Contents/Developer/Toolchains/XcodeDefault.xctoolchain/usr/bin/../include/c++/v1/ios:531:16
	movq	-16(%rbp), %rdi
	.loc	1 531 14 is_stmt 0      ## /Applications/Xcode.app/Contents/Developer/Toolchains/XcodeDefault.xctoolchain/usr/bin/../include/c++/v1/ios:531:14
	movq	%rdi, 24(%rsi)
	.loc	1 532 12 is_stmt 1      ## /Applications/Xcode.app/Contents/Developer/Toolchains/XcodeDefault.xctoolchain/usr/bin/../include/c++/v1/ios:532:12
	movq	-24(%rbp), %rax
	.loc	1 532 5 is_stmt 0       ## /Applications/Xcode.app/Contents/Developer/Toolchains/XcodeDefault.xctoolchain/usr/bin/../include/c++/v1/ios:532:5
	popq	%rbp
	retq
Ltmp261:
Lfunc_end37:
	.cfi_endproc
                                        ## -- End function
	.p2align	4, 0x90         ## -- Begin function _ZNSt3__112basic_stringIcNS_11char_traitsIcEENS_9allocatorIcEEEC2Emc
__ZNSt3__112basic_stringIcNS_11char_traitsIcEENS_9allocatorIcEEEC2Emc: ## @_ZNSt3__112basic_stringIcNS_11char_traitsIcEENS_9allocatorIcEEEC2Emc
Lfunc_begin38:
	.loc	6 1927 0 is_stmt 1      ## /Applications/Xcode.app/Contents/Developer/Toolchains/XcodeDefault.xctoolchain/usr/bin/../include/c++/v1/string:1927:0
	.cfi_startproc
## %bb.0:
	pushq	%rbp
	.cfi_def_cfa_offset 16
	.cfi_offset %rbp, -16
	movq	%rsp, %rbp
	.cfi_def_cfa_register %rbp
	subq	$32, %rsp
	movb	%dl, %al
	movq	%rdi, -8(%rbp)
	movq	%rsi, -16(%rbp)
	movb	%al, -17(%rbp)
	movq	-8(%rbp), %rsi
Ltmp262:
	.loc	6 835 5 prologue_end    ## /Applications/Xcode.app/Contents/Developer/Toolchains/XcodeDefault.xctoolchain/usr/bin/../include/c++/v1/string:835:5
	movq	%rsi, %rdi
	movq	%rsi, -32(%rbp)         ## 8-byte Spill
	callq	__ZNSt3__117__compressed_pairINS_12basic_stringIcNS_11char_traitsIcEENS_9allocatorIcEEE5__repES5_EC1ILb1EvEEv
Ltmp263:
	.loc	6 1928 12               ## /Applications/Xcode.app/Contents/Developer/Toolchains/XcodeDefault.xctoolchain/usr/bin/../include/c++/v1/string:1928:12
	movq	-16(%rbp), %rsi
	movq	-32(%rbp), %rdi         ## 8-byte Reload
	.loc	6 1928 5 is_stmt 0      ## /Applications/Xcode.app/Contents/Developer/Toolchains/XcodeDefault.xctoolchain/usr/bin/../include/c++/v1/string:1928:5
	movsbl	-17(%rbp), %edx
	callq	__ZNSt3__112basic_stringIcNS_11char_traitsIcEENS_9allocatorIcEEE6__initEmc
Ltmp264:
	.loc	6 1932 1 is_stmt 1      ## /Applications/Xcode.app/Contents/Developer/Toolchains/XcodeDefault.xctoolchain/usr/bin/../include/c++/v1/string:1932:1
	addq	$32, %rsp
	popq	%rbp
	retq
Ltmp265:
Lfunc_end38:
	.cfi_endproc
                                        ## -- End function
	.p2align	4, 0x90         ## -- Begin function _ZNSt3__117__compressed_pairINS_12basic_stringIcNS_11char_traitsIcEENS_9allocatorIcEEE5__repES5_EC1ILb1EvEEv
__ZNSt3__117__compressed_pairINS_12basic_stringIcNS_11char_traitsIcEENS_9allocatorIcEEE5__repES5_EC1ILb1EvEEv: ## @_ZNSt3__117__compressed_pairINS_12basic_stringIcNS_11char_traitsIcEENS_9allocatorIcEEE5__repES5_EC1ILb1EvEEv
Lfunc_begin39:
	.loc	7 2234 0                ## /Applications/Xcode.app/Contents/Developer/Toolchains/XcodeDefault.xctoolchain/usr/bin/../include/c++/v1/memory:2234:0
	.cfi_startproc
## %bb.0:
	pushq	%rbp
	.cfi_def_cfa_offset 16
	.cfi_offset %rbp, -16
	movq	%rsp, %rbp
	.cfi_def_cfa_register %rbp
	subq	$16, %rsp
	movq	%rdi, -8(%rbp)
	movq	-8(%rbp), %rdi
Ltmp266:
	.loc	7 2234 33 prologue_end  ## /Applications/Xcode.app/Contents/Developer/Toolchains/XcodeDefault.xctoolchain/usr/bin/../include/c++/v1/memory:2234:33
	callq	__ZNSt3__117__compressed_pairINS_12basic_stringIcNS_11char_traitsIcEENS_9allocatorIcEEE5__repES5_EC2ILb1EvEEv
	.loc	7 2234 34 is_stmt 0     ## /Applications/Xcode.app/Contents/Developer/Toolchains/XcodeDefault.xctoolchain/usr/bin/../include/c++/v1/memory:2234:34
	addq	$16, %rsp
	popq	%rbp
	retq
Ltmp267:
Lfunc_end39:
	.cfi_endproc
                                        ## -- End function
	.p2align	4, 0x90         ## -- Begin function _ZNSt3__117__compressed_pairINS_12basic_stringIcNS_11char_traitsIcEENS_9allocatorIcEEE5__repES5_EC2ILb1EvEEv
__ZNSt3__117__compressed_pairINS_12basic_stringIcNS_11char_traitsIcEENS_9allocatorIcEEE5__repES5_EC2ILb1EvEEv: ## @_ZNSt3__117__compressed_pairINS_12basic_stringIcNS_11char_traitsIcEENS_9allocatorIcEEE5__repES5_EC2ILb1EvEEv
Lfunc_begin40:
	.loc	7 2234 0 is_stmt 1      ## /Applications/Xcode.app/Contents/Developer/Toolchains/XcodeDefault.xctoolchain/usr/bin/../include/c++/v1/memory:2234:0
	.cfi_startproc
## %bb.0:
	pushq	%rbp
	.cfi_def_cfa_offset 16
	.cfi_offset %rbp, -16
	movq	%rsp, %rbp
	.cfi_def_cfa_register %rbp
	subq	$16, %rsp
	movq	%rdi, -8(%rbp)
	movq	-8(%rbp), %rdi
Ltmp268:
	.loc	7 2234 33 prologue_end  ## /Applications/Xcode.app/Contents/Developer/Toolchains/XcodeDefault.xctoolchain/usr/bin/../include/c++/v1/memory:2234:33
	movq	%rdi, %rax
	movq	%rdi, -16(%rbp)         ## 8-byte Spill
	.loc	7 2234 13 is_stmt 0     ## /Applications/Xcode.app/Contents/Developer/Toolchains/XcodeDefault.xctoolchain/usr/bin/../include/c++/v1/memory:2234:13
	movq	%rax, %rdi
	callq	__ZNSt3__122__compressed_pair_elemINS_12basic_stringIcNS_11char_traitsIcEENS_9allocatorIcEEE5__repELi0ELb0EEC2Ev
	movq	-16(%rbp), %rax         ## 8-byte Reload
	movq	%rax, %rdi
	callq	__ZNSt3__122__compressed_pair_elemINS_9allocatorIcEELi1ELb1EEC2Ev
	.loc	7 2234 34               ## /Applications/Xcode.app/Contents/Developer/Toolchains/XcodeDefault.xctoolchain/usr/bin/../include/c++/v1/memory:2234:34
	addq	$16, %rsp
	popq	%rbp
	retq
Ltmp269:
Lfunc_end40:
	.cfi_endproc
                                        ## -- End function
	.p2align	4, 0x90         ## -- Begin function _ZNSt3__122__compressed_pair_elemINS_12basic_stringIcNS_11char_traitsIcEENS_9allocatorIcEEE5__repELi0ELb0EEC2Ev
__ZNSt3__122__compressed_pair_elemINS_12basic_stringIcNS_11char_traitsIcEENS_9allocatorIcEEE5__repELi0ELb0EEC2Ev: ## @_ZNSt3__122__compressed_pair_elemINS_12basic_stringIcNS_11char_traitsIcEENS_9allocatorIcEEE5__repELi0ELb0EEC2Ev
Lfunc_begin41:
	.loc	7 2140 0 is_stmt 1      ## /Applications/Xcode.app/Contents/Developer/Toolchains/XcodeDefault.xctoolchain/usr/bin/../include/c++/v1/memory:2140:0
	.cfi_startproc
## %bb.0:
	pushq	%rbp
	.cfi_def_cfa_offset 16
	.cfi_offset %rbp, -16
	movq	%rsp, %rbp
	.cfi_def_cfa_register %rbp
	subq	$16, %rsp
	xorl	%esi, %esi
	movq	%rdi, -8(%rbp)
	movq	-8(%rbp), %rdi
Ltmp270:
	.loc	7 2140 118 prologue_end ## /Applications/Xcode.app/Contents/Developer/Toolchains/XcodeDefault.xctoolchain/usr/bin/../include/c++/v1/memory:2140:118
	movl	$24, %edx
	callq	_memset
	.loc	7 2140 130 is_stmt 0    ## /Applications/Xcode.app/Contents/Developer/Toolchains/XcodeDefault.xctoolchain/usr/bin/../include/c++/v1/memory:2140:130
	addq	$16, %rsp
	popq	%rbp
	retq
Ltmp271:
Lfunc_end41:
	.cfi_endproc
                                        ## -- End function
	.p2align	4, 0x90         ## -- Begin function _ZNSt3__122__compressed_pair_elemINS_9allocatorIcEELi1ELb1EEC2Ev
__ZNSt3__122__compressed_pair_elemINS_9allocatorIcEELi1ELb1EEC2Ev: ## @_ZNSt3__122__compressed_pair_elemINS_9allocatorIcEELi1ELb1EEC2Ev
Lfunc_begin42:
	.loc	7 2179 0 is_stmt 1      ## /Applications/Xcode.app/Contents/Developer/Toolchains/XcodeDefault.xctoolchain/usr/bin/../include/c++/v1/memory:2179:0
	.cfi_startproc
## %bb.0:
	pushq	%rbp
	.cfi_def_cfa_offset 16
	.cfi_offset %rbp, -16
	movq	%rsp, %rbp
	.cfi_def_cfa_register %rbp
	subq	$16, %rsp
	movq	%rdi, -8(%rbp)
	movq	-8(%rbp), %rdi
Ltmp272:
	.loc	7 2179 91 prologue_end  ## /Applications/Xcode.app/Contents/Developer/Toolchains/XcodeDefault.xctoolchain/usr/bin/../include/c++/v1/memory:2179:91
	callq	__ZNSt3__19allocatorIcEC2Ev
	.loc	7 2179 124 is_stmt 0    ## /Applications/Xcode.app/Contents/Developer/Toolchains/XcodeDefault.xctoolchain/usr/bin/../include/c++/v1/memory:2179:124
	addq	$16, %rsp
	popq	%rbp
	retq
Ltmp273:
Lfunc_end42:
	.cfi_endproc
                                        ## -- End function
	.p2align	4, 0x90         ## -- Begin function _ZNSt3__19allocatorIcEC2Ev
__ZNSt3__19allocatorIcEC2Ev:            ## @_ZNSt3__19allocatorIcEC2Ev
Lfunc_begin43:
	.loc	7 1798 0 is_stmt 1      ## /Applications/Xcode.app/Contents/Developer/Toolchains/XcodeDefault.xctoolchain/usr/bin/../include/c++/v1/memory:1798:0
	.cfi_startproc
## %bb.0:
	pushq	%rbp
	.cfi_def_cfa_offset 16
	.cfi_offset %rbp, -16
	movq	%rsp, %rbp
	.cfi_def_cfa_register %rbp
	movq	%rdi, -8(%rbp)
Ltmp274:
	.loc	7 1798 27 prologue_end  ## /Applications/Xcode.app/Contents/Developer/Toolchains/XcodeDefault.xctoolchain/usr/bin/../include/c++/v1/memory:1798:27
	popq	%rbp
	retq
Ltmp275:
Lfunc_end43:
	.cfi_endproc
                                        ## -- End function
	.p2align	4, 0x90         ## -- Begin function _ZNSt3__1L16__to_raw_pointerIcEEPT_S2_
__ZNSt3__1L16__to_raw_pointerIcEEPT_S2_: ## @_ZNSt3__1L16__to_raw_pointerIcEEPT_S2_
Lfunc_begin44:
	.loc	7 1107 0                ## /Applications/Xcode.app/Contents/Developer/Toolchains/XcodeDefault.xctoolchain/usr/bin/../include/c++/v1/memory:1107:0
	.cfi_startproc
## %bb.0:
	pushq	%rbp
	.cfi_def_cfa_offset 16
	.cfi_offset %rbp, -16
	movq	%rsp, %rbp
	.cfi_def_cfa_register %rbp
	movq	%rdi, -8(%rbp)
Ltmp276:
	.loc	7 1108 12 prologue_end  ## /Applications/Xcode.app/Contents/Developer/Toolchains/XcodeDefault.xctoolchain/usr/bin/../include/c++/v1/memory:1108:12
	movq	-8(%rbp), %rax
	.loc	7 1108 5 is_stmt 0      ## /Applications/Xcode.app/Contents/Developer/Toolchains/XcodeDefault.xctoolchain/usr/bin/../include/c++/v1/memory:1108:5
	popq	%rbp
	retq
Ltmp277:
Lfunc_end44:
	.cfi_endproc
                                        ## -- End function
	.p2align	4, 0x90         ## -- Begin function _ZNSt3__112basic_stringIcNS_11char_traitsIcEENS_9allocatorIcEEE13__get_pointerEv
__ZNSt3__112basic_stringIcNS_11char_traitsIcEENS_9allocatorIcEEE13__get_pointerEv: ## @_ZNSt3__112basic_stringIcNS_11char_traitsIcEENS_9allocatorIcEEE13__get_pointerEv
Lfunc_begin45:
	.loc	6 1512 0 is_stmt 1      ## /Applications/Xcode.app/Contents/Developer/Toolchains/XcodeDefault.xctoolchain/usr/bin/../include/c++/v1/string:1512:0
	.cfi_startproc
## %bb.0:
	pushq	%rbp
	.cfi_def_cfa_offset 16
	.cfi_offset %rbp, -16
	movq	%rsp, %rbp
	.cfi_def_cfa_register %rbp
	subq	$32, %rsp
	movq	%rdi, -8(%rbp)
	movq	-8(%rbp), %rdi
	movq	%rdi, -16(%rbp)         ## 8-byte Spill
Ltmp278:
	.loc	6 1512 17 prologue_end  ## /Applications/Xcode.app/Contents/Developer/Toolchains/XcodeDefault.xctoolchain/usr/bin/../include/c++/v1/string:1512:17
	callq	__ZNKSt3__112basic_stringIcNS_11char_traitsIcEENS_9allocatorIcEEE9__is_longEv
	testb	$1, %al
	jne	LBB45_1
	jmp	LBB45_2
LBB45_1:
	.loc	6 0 17 is_stmt 0        ## /Applications/Xcode.app/Contents/Developer/Toolchains/XcodeDefault.xctoolchain/usr/bin/../include/c++/v1/string:0:17
	movq	-16(%rbp), %rdi         ## 8-byte Reload
	.loc	6 1512 31               ## /Applications/Xcode.app/Contents/Developer/Toolchains/XcodeDefault.xctoolchain/usr/bin/../include/c++/v1/string:1512:31
	callq	__ZNSt3__112basic_stringIcNS_11char_traitsIcEENS_9allocatorIcEEE18__get_long_pointerEv
	movq	%rax, -24(%rbp)         ## 8-byte Spill
	.loc	6 1512 17               ## /Applications/Xcode.app/Contents/Developer/Toolchains/XcodeDefault.xctoolchain/usr/bin/../include/c++/v1/string:1512:17
	jmp	LBB45_3
LBB45_2:
	.loc	6 0 17                  ## /Applications/Xcode.app/Contents/Developer/Toolchains/XcodeDefault.xctoolchain/usr/bin/../include/c++/v1/string:0:17
	movq	-16(%rbp), %rdi         ## 8-byte Reload
	.loc	6 1512 54               ## /Applications/Xcode.app/Contents/Developer/Toolchains/XcodeDefault.xctoolchain/usr/bin/../include/c++/v1/string:1512:54
	callq	__ZNSt3__112basic_stringIcNS_11char_traitsIcEENS_9allocatorIcEEE19__get_short_pointerEv
	movq	%rax, -24(%rbp)         ## 8-byte Spill
LBB45_3:
	.loc	6 0 54                  ## /Applications/Xcode.app/Contents/Developer/Toolchains/XcodeDefault.xctoolchain/usr/bin/../include/c++/v1/string:0:54
	movq	-24(%rbp), %rax         ## 8-byte Reload
	.loc	6 1512 10               ## /Applications/Xcode.app/Contents/Developer/Toolchains/XcodeDefault.xctoolchain/usr/bin/../include/c++/v1/string:1512:10
	addq	$32, %rsp
	popq	%rbp
	retq
Ltmp279:
Lfunc_end45:
	.cfi_endproc
                                        ## -- End function
	.p2align	4, 0x90         ## -- Begin function _ZNKSt3__112basic_stringIcNS_11char_traitsIcEENS_9allocatorIcEEE9__is_longEv
__ZNKSt3__112basic_stringIcNS_11char_traitsIcEENS_9allocatorIcEEE9__is_longEv: ## @_ZNKSt3__112basic_stringIcNS_11char_traitsIcEENS_9allocatorIcEEE9__is_longEv
Lfunc_begin46:
	.loc	6 1421 0 is_stmt 1      ## /Applications/Xcode.app/Contents/Developer/Toolchains/XcodeDefault.xctoolchain/usr/bin/../include/c++/v1/string:1421:0
	.cfi_startproc
## %bb.0:
	pushq	%rbp
	.cfi_def_cfa_offset 16
	.cfi_offset %rbp, -16
	movq	%rsp, %rbp
	.cfi_def_cfa_register %rbp
	subq	$16, %rsp
	movq	%rdi, -8(%rbp)
	movq	-8(%rbp), %rdi
Ltmp280:
	.loc	6 1421 27 prologue_end  ## /Applications/Xcode.app/Contents/Developer/Toolchains/XcodeDefault.xctoolchain/usr/bin/../include/c++/v1/string:1421:27
	callq	__ZNKSt3__117__compressed_pairINS_12basic_stringIcNS_11char_traitsIcEENS_9allocatorIcEEE5__repES5_E5firstEv
	.loc	6 1421 22 is_stmt 0     ## /Applications/Xcode.app/Contents/Developer/Toolchains/XcodeDefault.xctoolchain/usr/bin/../include/c++/v1/string:1421:22
	movzbl	(%rax), %ecx
	movl	%ecx, %eax
	.loc	6 1421 47               ## /Applications/Xcode.app/Contents/Developer/Toolchains/XcodeDefault.xctoolchain/usr/bin/../include/c++/v1/string:1421:47
	andq	$1, %rax
	.loc	6 1421 22               ## /Applications/Xcode.app/Contents/Developer/Toolchains/XcodeDefault.xctoolchain/usr/bin/../include/c++/v1/string:1421:22
	cmpq	$0, %rax
	setne	%dl
	.loc	6 1421 10               ## /Applications/Xcode.app/Contents/Developer/Toolchains/XcodeDefault.xctoolchain/usr/bin/../include/c++/v1/string:1421:10
	andb	$1, %dl
	movzbl	%dl, %eax
	addq	$16, %rsp
	popq	%rbp
	retq
Ltmp281:
Lfunc_end46:
	.cfi_endproc
                                        ## -- End function
	.p2align	4, 0x90         ## -- Begin function _ZNSt3__112basic_stringIcNS_11char_traitsIcEENS_9allocatorIcEEE18__get_long_pointerEv
__ZNSt3__112basic_stringIcNS_11char_traitsIcEENS_9allocatorIcEEE18__get_long_pointerEv: ## @_ZNSt3__112basic_stringIcNS_11char_traitsIcEENS_9allocatorIcEEE18__get_long_pointerEv
Lfunc_begin47:
	.loc	6 1500 0 is_stmt 1      ## /Applications/Xcode.app/Contents/Developer/Toolchains/XcodeDefault.xctoolchain/usr/bin/../include/c++/v1/string:1500:0
	.cfi_startproc
## %bb.0:
	pushq	%rbp
	.cfi_def_cfa_offset 16
	.cfi_offset %rbp, -16
	movq	%rsp, %rbp
	.cfi_def_cfa_register %rbp
	subq	$16, %rsp
	movq	%rdi, -8(%rbp)
	movq	-8(%rbp), %rdi
Ltmp282:
	.loc	6 1500 22 prologue_end  ## /Applications/Xcode.app/Contents/Developer/Toolchains/XcodeDefault.xctoolchain/usr/bin/../include/c++/v1/string:1500:22
	callq	__ZNSt3__117__compressed_pairINS_12basic_stringIcNS_11char_traitsIcEENS_9allocatorIcEEE5__repES5_E5firstEv
	.loc	6 1500 34 is_stmt 0     ## /Applications/Xcode.app/Contents/Developer/Toolchains/XcodeDefault.xctoolchain/usr/bin/../include/c++/v1/string:1500:34
	movq	16(%rax), %rax
	.loc	6 1500 10               ## /Applications/Xcode.app/Contents/Developer/Toolchains/XcodeDefault.xctoolchain/usr/bin/../include/c++/v1/string:1500:10
	addq	$16, %rsp
	popq	%rbp
	retq
Ltmp283:
Lfunc_end47:
	.cfi_endproc
                                        ## -- End function
	.p2align	4, 0x90         ## -- Begin function _ZNSt3__112basic_stringIcNS_11char_traitsIcEENS_9allocatorIcEEE19__get_short_pointerEv
__ZNSt3__112basic_stringIcNS_11char_traitsIcEENS_9allocatorIcEEE19__get_short_pointerEv: ## @_ZNSt3__112basic_stringIcNS_11char_traitsIcEENS_9allocatorIcEEE19__get_short_pointerEv
Lfunc_begin48:
	.loc	6 1506 0 is_stmt 1      ## /Applications/Xcode.app/Contents/Developer/Toolchains/XcodeDefault.xctoolchain/usr/bin/../include/c++/v1/string:1506:0
	.cfi_startproc
## %bb.0:
	pushq	%rbp
	.cfi_def_cfa_offset 16
	.cfi_offset %rbp, -16
	movq	%rsp, %rbp
	.cfi_def_cfa_register %rbp
	subq	$16, %rsp
	movq	%rdi, -8(%rbp)
	movq	-8(%rbp), %rdi
Ltmp284:
	.loc	6 1506 58 prologue_end  ## /Applications/Xcode.app/Contents/Developer/Toolchains/XcodeDefault.xctoolchain/usr/bin/../include/c++/v1/string:1506:58
	callq	__ZNSt3__117__compressed_pairINS_12basic_stringIcNS_11char_traitsIcEENS_9allocatorIcEEE5__repES5_E5firstEv
	.loc	6 1506 70 is_stmt 0     ## /Applications/Xcode.app/Contents/Developer/Toolchains/XcodeDefault.xctoolchain/usr/bin/../include/c++/v1/string:1506:70
	addq	$1, %rax
	.loc	6 1506 17               ## /Applications/Xcode.app/Contents/Developer/Toolchains/XcodeDefault.xctoolchain/usr/bin/../include/c++/v1/string:1506:17
	movq	%rax, %rdi
	callq	__ZNSt3__114pointer_traitsIPcE10pointer_toERc
	.loc	6 1506 10               ## /Applications/Xcode.app/Contents/Developer/Toolchains/XcodeDefault.xctoolchain/usr/bin/../include/c++/v1/string:1506:10
	addq	$16, %rsp
	popq	%rbp
	retq
Ltmp285:
Lfunc_end48:
	.cfi_endproc
                                        ## -- End function
	.p2align	4, 0x90         ## -- Begin function _ZNKSt3__117__compressed_pairINS_12basic_stringIcNS_11char_traitsIcEENS_9allocatorIcEEE5__repES5_E5firstEv
__ZNKSt3__117__compressed_pairINS_12basic_stringIcNS_11char_traitsIcEENS_9allocatorIcEEE5__repES5_E5firstEv: ## @_ZNKSt3__117__compressed_pairINS_12basic_stringIcNS_11char_traitsIcEENS_9allocatorIcEEE5__repES5_E5firstEv
Lfunc_begin49:
	.loc	7 2284 0 is_stmt 1      ## /Applications/Xcode.app/Contents/Developer/Toolchains/XcodeDefault.xctoolchain/usr/bin/../include/c++/v1/memory:2284:0
	.cfi_startproc
## %bb.0:
	pushq	%rbp
	.cfi_def_cfa_offset 16
	.cfi_offset %rbp, -16
	movq	%rsp, %rbp
	.cfi_def_cfa_register %rbp
	subq	$16, %rsp
	movq	%rdi, -8(%rbp)
	movq	-8(%rbp), %rdi
Ltmp286:
	.loc	7 2285 46 prologue_end  ## /Applications/Xcode.app/Contents/Developer/Toolchains/XcodeDefault.xctoolchain/usr/bin/../include/c++/v1/memory:2285:46
	callq	__ZNKSt3__122__compressed_pair_elemINS_12basic_stringIcNS_11char_traitsIcEENS_9allocatorIcEEE5__repELi0ELb0EE5__getEv
	.loc	7 2285 5 is_stmt 0      ## /Applications/Xcode.app/Contents/Developer/Toolchains/XcodeDefault.xctoolchain/usr/bin/../include/c++/v1/memory:2285:5
	addq	$16, %rsp
	popq	%rbp
	retq
Ltmp287:
Lfunc_end49:
	.cfi_endproc
                                        ## -- End function
	.p2align	4, 0x90         ## -- Begin function _ZNKSt3__122__compressed_pair_elemINS_12basic_stringIcNS_11char_traitsIcEENS_9allocatorIcEEE5__repELi0ELb0EE5__getEv
__ZNKSt3__122__compressed_pair_elemINS_12basic_stringIcNS_11char_traitsIcEENS_9allocatorIcEEE5__repELi0ELb0EE5__getEv: ## @_ZNKSt3__122__compressed_pair_elemINS_12basic_stringIcNS_11char_traitsIcEENS_9allocatorIcEEE5__repELi0ELb0EE5__getEv
Lfunc_begin50:
	.loc	7 2165 0 is_stmt 1      ## /Applications/Xcode.app/Contents/Developer/Toolchains/XcodeDefault.xctoolchain/usr/bin/../include/c++/v1/memory:2165:0
	.cfi_startproc
## %bb.0:
	pushq	%rbp
	.cfi_def_cfa_offset 16
	.cfi_offset %rbp, -16
	movq	%rsp, %rbp
	.cfi_def_cfa_register %rbp
	movq	%rdi, -8(%rbp)
	movq	-8(%rbp), %rax
Ltmp288:
	.loc	7 2165 44 prologue_end  ## /Applications/Xcode.app/Contents/Developer/Toolchains/XcodeDefault.xctoolchain/usr/bin/../include/c++/v1/memory:2165:44
	popq	%rbp
	retq
Ltmp289:
Lfunc_end50:
	.cfi_endproc
                                        ## -- End function
	.p2align	4, 0x90         ## -- Begin function _ZNSt3__117__compressed_pairINS_12basic_stringIcNS_11char_traitsIcEENS_9allocatorIcEEE5__repES5_E5firstEv
__ZNSt3__117__compressed_pairINS_12basic_stringIcNS_11char_traitsIcEENS_9allocatorIcEEE5__repES5_E5firstEv: ## @_ZNSt3__117__compressed_pairINS_12basic_stringIcNS_11char_traitsIcEENS_9allocatorIcEEE5__repES5_E5firstEv
Lfunc_begin51:
	.loc	7 2279 0                ## /Applications/Xcode.app/Contents/Developer/Toolchains/XcodeDefault.xctoolchain/usr/bin/../include/c++/v1/memory:2279:0
	.cfi_startproc
## %bb.0:
	pushq	%rbp
	.cfi_def_cfa_offset 16
	.cfi_offset %rbp, -16
	movq	%rsp, %rbp
	.cfi_def_cfa_register %rbp
	subq	$16, %rsp
	movq	%rdi, -8(%rbp)
	movq	-8(%rbp), %rdi
Ltmp290:
	.loc	7 2280 40 prologue_end  ## /Applications/Xcode.app/Contents/Developer/Toolchains/XcodeDefault.xctoolchain/usr/bin/../include/c++/v1/memory:2280:40
	callq	__ZNSt3__122__compressed_pair_elemINS_12basic_stringIcNS_11char_traitsIcEENS_9allocatorIcEEE5__repELi0ELb0EE5__getEv
	.loc	7 2280 5 is_stmt 0      ## /Applications/Xcode.app/Contents/Developer/Toolchains/XcodeDefault.xctoolchain/usr/bin/../include/c++/v1/memory:2280:5
	addq	$16, %rsp
	popq	%rbp
	retq
Ltmp291:
Lfunc_end51:
	.cfi_endproc
                                        ## -- End function
	.p2align	4, 0x90         ## -- Begin function _ZNSt3__122__compressed_pair_elemINS_12basic_stringIcNS_11char_traitsIcEENS_9allocatorIcEEE5__repELi0ELb0EE5__getEv
__ZNSt3__122__compressed_pair_elemINS_12basic_stringIcNS_11char_traitsIcEENS_9allocatorIcEEE5__repELi0ELb0EE5__getEv: ## @_ZNSt3__122__compressed_pair_elemINS_12basic_stringIcNS_11char_traitsIcEENS_9allocatorIcEEE5__repELi0ELb0EE5__getEv
Lfunc_begin52:
	.loc	7 2163 0 is_stmt 1      ## /Applications/Xcode.app/Contents/Developer/Toolchains/XcodeDefault.xctoolchain/usr/bin/../include/c++/v1/memory:2163:0
	.cfi_startproc
## %bb.0:
	pushq	%rbp
	.cfi_def_cfa_offset 16
	.cfi_offset %rbp, -16
	movq	%rsp, %rbp
	.cfi_def_cfa_register %rbp
	movq	%rdi, -8(%rbp)
	movq	-8(%rbp), %rax
Ltmp292:
	.loc	7 2163 110 prologue_end ## /Applications/Xcode.app/Contents/Developer/Toolchains/XcodeDefault.xctoolchain/usr/bin/../include/c++/v1/memory:2163:110
	popq	%rbp
	retq
Ltmp293:
Lfunc_end52:
	.cfi_endproc
                                        ## -- End function
	.p2align	4, 0x90         ## -- Begin function _ZNSt3__114pointer_traitsIPcE10pointer_toERc
__ZNSt3__114pointer_traitsIPcE10pointer_toERc: ## @_ZNSt3__114pointer_traitsIPcE10pointer_toERc
Lfunc_begin53:
	.loc	7 990 0                 ## /Applications/Xcode.app/Contents/Developer/Toolchains/XcodeDefault.xctoolchain/usr/bin/../include/c++/v1/memory:990:0
	.cfi_startproc
## %bb.0:
	pushq	%rbp
	.cfi_def_cfa_offset 16
	.cfi_offset %rbp, -16
	movq	%rsp, %rbp
	.cfi_def_cfa_register %rbp
	subq	$16, %rsp
	movq	%rdi, -8(%rbp)
Ltmp294:
	.loc	7 990 37 prologue_end   ## /Applications/Xcode.app/Contents/Developer/Toolchains/XcodeDefault.xctoolchain/usr/bin/../include/c++/v1/memory:990:37
	movq	-8(%rbp), %rdi
	.loc	7 990 17 is_stmt 0      ## /Applications/Xcode.app/Contents/Developer/Toolchains/XcodeDefault.xctoolchain/usr/bin/../include/c++/v1/memory:990:17
	callq	__ZNSt3__1L9addressofIcEEPT_RS1_
	.loc	7 990 10                ## /Applications/Xcode.app/Contents/Developer/Toolchains/XcodeDefault.xctoolchain/usr/bin/../include/c++/v1/memory:990:10
	addq	$16, %rsp
	popq	%rbp
	retq
Ltmp295:
Lfunc_end53:
	.cfi_endproc
                                        ## -- End function
	.p2align	4, 0x90         ## -- Begin function _ZNSt3__1L9addressofIcEEPT_RS1_
__ZNSt3__1L9addressofIcEEPT_RS1_:       ## @_ZNSt3__1L9addressofIcEEPT_RS1_
Lfunc_begin54:
	.loc	8 455 0 is_stmt 1       ## /Applications/Xcode.app/Contents/Developer/Toolchains/XcodeDefault.xctoolchain/usr/bin/../include/c++/v1/type_traits:455:0
	.cfi_startproc
## %bb.0:
	pushq	%rbp
	.cfi_def_cfa_offset 16
	.cfi_offset %rbp, -16
	movq	%rsp, %rbp
	.cfi_def_cfa_register %rbp
	movq	%rdi, -8(%rbp)
Ltmp296:
	.loc	8 456 32 prologue_end   ## /Applications/Xcode.app/Contents/Developer/Toolchains/XcodeDefault.xctoolchain/usr/bin/../include/c++/v1/type_traits:456:32
	movq	-8(%rbp), %rax
	.loc	8 456 5 is_stmt 0       ## /Applications/Xcode.app/Contents/Developer/Toolchains/XcodeDefault.xctoolchain/usr/bin/../include/c++/v1/type_traits:456:5
	popq	%rbp
	retq
Ltmp297:
Lfunc_end54:
	.cfi_endproc
                                        ## -- End function
	.p2align	4, 0x90         ## -- Begin function _ZNSt3__119ostreambuf_iteratorIcNS_11char_traitsIcEEEC2ERNS_13basic_ostreamIcS2_EE
__ZNSt3__119ostreambuf_iteratorIcNS_11char_traitsIcEEEC2ERNS_13basic_ostreamIcS2_EE: ## @_ZNSt3__119ostreambuf_iteratorIcNS_11char_traitsIcEEEC2ERNS_13basic_ostreamIcS2_EE
Lfunc_begin55:
	.loc	15 1068 0 is_stmt 1     ## /Applications/Xcode.app/Contents/Developer/Toolchains/XcodeDefault.xctoolchain/usr/bin/../include/c++/v1/iterator:1068:0
	.cfi_startproc
	.cfi_personality 155, ___gxx_personality_v0
	.cfi_lsda 16, Lexception6
## %bb.0:
	pushq	%rbp
	.cfi_def_cfa_offset 16
	.cfi_offset %rbp, -16
	movq	%rsp, %rbp
	.cfi_def_cfa_register %rbp
	subq	$48, %rsp
	movq	%rdi, -8(%rbp)
	movq	%rsi, -16(%rbp)
	movq	-8(%rbp), %rsi
Ltmp301:
	.loc	15 1068 19 prologue_end ## /Applications/Xcode.app/Contents/Developer/Toolchains/XcodeDefault.xctoolchain/usr/bin/../include/c++/v1/iterator:1068:19
	movq	-16(%rbp), %rdi
	movq	(%rdi), %rax
	movq	-24(%rax), %rax
	addq	%rax, %rdi
Ltmp298:
	movq	%rsi, -24(%rbp)         ## 8-byte Spill
	.loc	15 1068 23 is_stmt 0    ## /Applications/Xcode.app/Contents/Developer/Toolchains/XcodeDefault.xctoolchain/usr/bin/../include/c++/v1/iterator:1068:23
	callq	__ZNKSt3__19basic_iosIcNS_11char_traitsIcEEE5rdbufEv
Ltmp299:
	movq	%rax, -32(%rbp)         ## 8-byte Spill
	jmp	LBB55_1
LBB55_1:
	.loc	15 0 23                 ## /Applications/Xcode.app/Contents/Developer/Toolchains/XcodeDefault.xctoolchain/usr/bin/../include/c++/v1/iterator:0:23
	movq	-24(%rbp), %rax         ## 8-byte Reload
	movq	-32(%rbp), %rcx         ## 8-byte Reload
	.loc	15 1068 11              ## /Applications/Xcode.app/Contents/Developer/Toolchains/XcodeDefault.xctoolchain/usr/bin/../include/c++/v1/iterator:1068:11
	movq	%rcx, (%rax)
	.loc	15 1068 33              ## /Applications/Xcode.app/Contents/Developer/Toolchains/XcodeDefault.xctoolchain/usr/bin/../include/c++/v1/iterator:1068:33
	addq	$48, %rsp
	popq	%rbp
	retq
LBB55_2:
Ltmp300:
	.loc	15 1068 23              ## /Applications/Xcode.app/Contents/Developer/Toolchains/XcodeDefault.xctoolchain/usr/bin/../include/c++/v1/iterator:1068:23
	movq	%rax, %rdi
	movq	%rdx, -40(%rbp)         ## 8-byte Spill
	callq	___clang_call_terminate
Ltmp302:
Lfunc_end55:
	.cfi_endproc
	.section	__TEXT,__gcc_except_tab
	.p2align	2
GCC_except_table55:
Lexception6:
	.byte	255                     ## @LPStart Encoding = omit
	.byte	155                     ## @TType Encoding = indirect pcrel sdata4
	.uleb128 Lttbase2-Lttbaseref2
Lttbaseref2:
	.byte	1                       ## Call site Encoding = uleb128
	.uleb128 Lcst_end6-Lcst_begin6
Lcst_begin6:
	.uleb128 Ltmp298-Lfunc_begin55  ## >> Call Site 1 <<
	.uleb128 Ltmp299-Ltmp298        ##   Call between Ltmp298 and Ltmp299
	.uleb128 Ltmp300-Lfunc_begin55  ##     jumps to Ltmp300
	.byte	1                       ##   On action: 1
Lcst_end6:
	.byte	1                       ## >> Action Record 1 <<
                                        ##   Catch TypeInfo 1
	.byte	0                       ##   No further actions
	.p2align	2
                                        ## >> Catch TypeInfos <<
	.long	0                       ## TypeInfo 1
Lttbase2:
	.p2align	2
                                        ## -- End function
	.section	__TEXT,__text,regular,pure_instructions
	.p2align	4, 0x90         ## -- Begin function _ZNKSt3__19basic_iosIcNS_11char_traitsIcEEE5rdbufEv
__ZNKSt3__19basic_iosIcNS_11char_traitsIcEEE5rdbufEv: ## @_ZNKSt3__19basic_iosIcNS_11char_traitsIcEEE5rdbufEv
Lfunc_begin56:
	.loc	1 739 0 is_stmt 1       ## /Applications/Xcode.app/Contents/Developer/Toolchains/XcodeDefault.xctoolchain/usr/bin/../include/c++/v1/ios:739:0
	.cfi_startproc
## %bb.0:
	pushq	%rbp
	.cfi_def_cfa_offset 16
	.cfi_offset %rbp, -16
	movq	%rsp, %rbp
	.cfi_def_cfa_register %rbp
	subq	$16, %rsp
	movq	%rdi, -8(%rbp)
	movq	-8(%rbp), %rdi
Ltmp303:
	.loc	1 740 76 prologue_end   ## /Applications/Xcode.app/Contents/Developer/Toolchains/XcodeDefault.xctoolchain/usr/bin/../include/c++/v1/ios:740:76
	callq	__ZNKSt3__18ios_base5rdbufEv
	.loc	1 740 5 is_stmt 0       ## /Applications/Xcode.app/Contents/Developer/Toolchains/XcodeDefault.xctoolchain/usr/bin/../include/c++/v1/ios:740:5
	addq	$16, %rsp
	popq	%rbp
	retq
Ltmp304:
Lfunc_end56:
	.cfi_endproc
                                        ## -- End function
	.p2align	4, 0x90         ## -- Begin function _ZNKSt3__18ios_base5rdbufEv
__ZNKSt3__18ios_base5rdbufEv:           ## @_ZNKSt3__18ios_base5rdbufEv
Lfunc_begin57:
	.loc	1 349 0 is_stmt 1       ## /Applications/Xcode.app/Contents/Developer/Toolchains/XcodeDefault.xctoolchain/usr/bin/../include/c++/v1/ios:349:0
	.cfi_startproc
## %bb.0:
	pushq	%rbp
	.cfi_def_cfa_offset 16
	.cfi_offset %rbp, -16
	movq	%rsp, %rbp
	.cfi_def_cfa_register %rbp
	movq	%rdi, -8(%rbp)
	movq	-8(%rbp), %rdi
Ltmp305:
	.loc	1 349 111 prologue_end  ## /Applications/Xcode.app/Contents/Developer/Toolchains/XcodeDefault.xctoolchain/usr/bin/../include/c++/v1/ios:349:111
	movq	40(%rdi), %rax
	.loc	1 349 104 is_stmt 0     ## /Applications/Xcode.app/Contents/Developer/Toolchains/XcodeDefault.xctoolchain/usr/bin/../include/c++/v1/ios:349:104
	popq	%rbp
	retq
Ltmp306:
Lfunc_end57:
	.cfi_endproc
                                        ## -- End function
	.globl	__ZNSt3__111char_traitsIcE11eq_int_typeEii ## -- Begin function _ZNSt3__111char_traitsIcE11eq_int_typeEii
	.weak_definition	__ZNSt3__111char_traitsIcE11eq_int_typeEii
	.p2align	4, 0x90
__ZNSt3__111char_traitsIcE11eq_int_typeEii: ## @_ZNSt3__111char_traitsIcE11eq_int_typeEii
Lfunc_begin58:
	.loc	11 238 0 is_stmt 1      ## /Applications/Xcode.app/Contents/Developer/Toolchains/XcodeDefault.xctoolchain/usr/bin/../include/c++/v1/__string:238:0
	.cfi_startproc
## %bb.0:
	pushq	%rbp
	.cfi_def_cfa_offset 16
	.cfi_offset %rbp, -16
	movq	%rsp, %rbp
	.cfi_def_cfa_register %rbp
	movl	%edi, -4(%rbp)
	movl	%esi, -8(%rbp)
Ltmp307:
	.loc	11 238 17 prologue_end  ## /Applications/Xcode.app/Contents/Developer/Toolchains/XcodeDefault.xctoolchain/usr/bin/../include/c++/v1/__string:238:17
	movl	-4(%rbp), %esi
	.loc	11 238 22 is_stmt 0     ## /Applications/Xcode.app/Contents/Developer/Toolchains/XcodeDefault.xctoolchain/usr/bin/../include/c++/v1/__string:238:22
	cmpl	-8(%rbp), %esi
	sete	%al
	.loc	11 238 10               ## /Applications/Xcode.app/Contents/Developer/Toolchains/XcodeDefault.xctoolchain/usr/bin/../include/c++/v1/__string:238:10
	andb	$1, %al
	movzbl	%al, %eax
	popq	%rbp
	retq
Ltmp308:
Lfunc_end58:
	.cfi_endproc
                                        ## -- End function
	.globl	__ZNSt3__111char_traitsIcE3eofEv ## -- Begin function _ZNSt3__111char_traitsIcE3eofEv
	.weak_definition	__ZNSt3__111char_traitsIcE3eofEv
	.p2align	4, 0x90
__ZNSt3__111char_traitsIcE3eofEv:       ## @_ZNSt3__111char_traitsIcE3eofEv
Lfunc_begin59:
	.loc	11 240 0 is_stmt 1      ## /Applications/Xcode.app/Contents/Developer/Toolchains/XcodeDefault.xctoolchain/usr/bin/../include/c++/v1/__string:240:0
	.cfi_startproc
## %bb.0:
	pushq	%rbp
	.cfi_def_cfa_offset 16
	.cfi_offset %rbp, -16
	movq	%rsp, %rbp
	.cfi_def_cfa_register %rbp
Ltmp309:
	.loc	11 240 10 prologue_end  ## /Applications/Xcode.app/Contents/Developer/Toolchains/XcodeDefault.xctoolchain/usr/bin/../include/c++/v1/__string:240:10
	movl	$4294967295, %eax       ## imm = 0xFFFFFFFF
	popq	%rbp
	retq
Ltmp310:
Lfunc_end59:
	.cfi_endproc
                                        ## -- End function
	.p2align	4, 0x90         ## -- Begin function _ZNKSt3__19basic_iosIcNS_11char_traitsIcEEE5widenEc
__ZNKSt3__19basic_iosIcNS_11char_traitsIcEEE5widenEc: ## @_ZNKSt3__19basic_iosIcNS_11char_traitsIcEEE5widenEc
Lfunc_begin60:
	.loc	1 777 0                 ## /Applications/Xcode.app/Contents/Developer/Toolchains/XcodeDefault.xctoolchain/usr/bin/../include/c++/v1/ios:777:0
	.cfi_startproc
	.cfi_personality 155, ___gxx_personality_v0
	.cfi_lsda 16, Lexception7
## %bb.0:
	pushq	%rbp
	.cfi_def_cfa_offset 16
	.cfi_offset %rbp, -16
	movq	%rsp, %rbp
	.cfi_def_cfa_register %rbp
	subq	$64, %rsp
	movb	%sil, %al
	movq	%rdi, -8(%rbp)
	movb	%al, -9(%rbp)
	movq	-8(%rbp), %rsi
	leaq	-24(%rbp), %rdi
	movq	%rdi, -48(%rbp)         ## 8-byte Spill
Ltmp316:
	.loc	1 778 41 prologue_end   ## /Applications/Xcode.app/Contents/Developer/Toolchains/XcodeDefault.xctoolchain/usr/bin/../include/c++/v1/ios:778:41
	callq	__ZNKSt3__18ios_base6getlocEv
Ltmp311:
	movq	-48(%rbp), %rdi         ## 8-byte Reload
	.loc	1 778 12 is_stmt 0      ## /Applications/Xcode.app/Contents/Developer/Toolchains/XcodeDefault.xctoolchain/usr/bin/../include/c++/v1/ios:778:12
	callq	__ZNSt3__1L9use_facetINS_5ctypeIcEEEERKT_RKNS_6localeE
Ltmp312:
	movq	%rax, -56(%rbp)         ## 8-byte Spill
	jmp	LBB60_1
LBB60_1:
	.loc	1 778 57                ## /Applications/Xcode.app/Contents/Developer/Toolchains/XcodeDefault.xctoolchain/usr/bin/../include/c++/v1/ios:778:57
	movsbl	-9(%rbp), %esi
Ltmp313:
	movq	-56(%rbp), %rdi         ## 8-byte Reload
	.loc	1 778 51                ## /Applications/Xcode.app/Contents/Developer/Toolchains/XcodeDefault.xctoolchain/usr/bin/../include/c++/v1/ios:778:51
	callq	__ZNKSt3__15ctypeIcE5widenEc
Ltmp314:
	movb	%al, -57(%rbp)          ## 1-byte Spill
	jmp	LBB60_2
LBB60_2:
	.loc	1 778 5                 ## /Applications/Xcode.app/Contents/Developer/Toolchains/XcodeDefault.xctoolchain/usr/bin/../include/c++/v1/ios:778:5
	leaq	-24(%rbp), %rdi
	callq	__ZNSt3__16localeD1Ev
	movb	-57(%rbp), %al          ## 1-byte Reload
	movsbl	%al, %eax
	addq	$64, %rsp
	popq	%rbp
	retq
LBB60_3:
Ltmp315:
	.loc	1 779 1 is_stmt 1       ## /Applications/Xcode.app/Contents/Developer/Toolchains/XcodeDefault.xctoolchain/usr/bin/../include/c++/v1/ios:779:1
	movl	%edx, %ecx
	movq	%rax, -32(%rbp)
	movl	%ecx, -36(%rbp)
	.loc	1 778 5                 ## /Applications/Xcode.app/Contents/Developer/Toolchains/XcodeDefault.xctoolchain/usr/bin/../include/c++/v1/ios:778:5
	leaq	-24(%rbp), %rdi
	callq	__ZNSt3__16localeD1Ev
## %bb.4:
	movq	-32(%rbp), %rdi
	callq	__Unwind_Resume
	ud2
Ltmp317:
Lfunc_end60:
	.cfi_endproc
	.section	__TEXT,__gcc_except_tab
	.p2align	2
GCC_except_table60:
Lexception7:
	.byte	255                     ## @LPStart Encoding = omit
	.byte	255                     ## @TType Encoding = omit
	.byte	1                       ## Call site Encoding = uleb128
	.uleb128 Lcst_end7-Lcst_begin7
Lcst_begin7:
	.uleb128 Lfunc_begin60-Lfunc_begin60 ## >> Call Site 1 <<
	.uleb128 Ltmp311-Lfunc_begin60  ##   Call between Lfunc_begin60 and Ltmp311
	.byte	0                       ##     has no landing pad
	.byte	0                       ##   On action: cleanup
	.uleb128 Ltmp311-Lfunc_begin60  ## >> Call Site 2 <<
	.uleb128 Ltmp314-Ltmp311        ##   Call between Ltmp311 and Ltmp314
	.uleb128 Ltmp315-Lfunc_begin60  ##     jumps to Ltmp315
	.byte	0                       ##   On action: cleanup
	.uleb128 Ltmp314-Lfunc_begin60  ## >> Call Site 3 <<
	.uleb128 Lfunc_end60-Ltmp314    ##   Call between Ltmp314 and Lfunc_end60
	.byte	0                       ##     has no landing pad
	.byte	0                       ##   On action: cleanup
Lcst_end7:
	.p2align	2
                                        ## -- End function
	.section	__TEXT,__text,regular,pure_instructions
	.p2align	4, 0x90         ## -- Begin function _ZNSt3__1L9use_facetINS_5ctypeIcEEEERKT_RKNS_6localeE
__ZNSt3__1L9use_facetINS_5ctypeIcEEEERKT_RKNS_6localeE: ## @_ZNSt3__1L9use_facetINS_5ctypeIcEEEERKT_RKNS_6localeE
Lfunc_begin61:
	.loc	5 233 0                 ## /Applications/Xcode.app/Contents/Developer/Toolchains/XcodeDefault.xctoolchain/usr/bin/../include/c++/v1/__locale:233:0
	.cfi_startproc
## %bb.0:
	pushq	%rbp
	.cfi_def_cfa_offset 16
	.cfi_offset %rbp, -16
	movq	%rsp, %rbp
	.cfi_def_cfa_register %rbp
	subq	$16, %rsp
	movq	__ZNSt3__15ctypeIcE2idE@GOTPCREL(%rip), %rsi
	movq	%rdi, -8(%rbp)
Ltmp318:
	.loc	5 234 40 prologue_end   ## /Applications/Xcode.app/Contents/Developer/Toolchains/XcodeDefault.xctoolchain/usr/bin/../include/c++/v1/__locale:234:40
	movq	-8(%rbp), %rdi
	.loc	5 234 44 is_stmt 0      ## /Applications/Xcode.app/Contents/Developer/Toolchains/XcodeDefault.xctoolchain/usr/bin/../include/c++/v1/__locale:234:44
	callq	__ZNKSt3__16locale9use_facetERNS0_2idE
	.loc	5 234 5                 ## /Applications/Xcode.app/Contents/Developer/Toolchains/XcodeDefault.xctoolchain/usr/bin/../include/c++/v1/__locale:234:5
	addq	$16, %rsp
	popq	%rbp
	retq
Ltmp319:
Lfunc_end61:
	.cfi_endproc
                                        ## -- End function
	.p2align	4, 0x90         ## -- Begin function _ZNKSt3__15ctypeIcE5widenEc
__ZNKSt3__15ctypeIcE5widenEc:           ## @_ZNKSt3__15ctypeIcE5widenEc
Lfunc_begin62:
	.loc	5 648 0 is_stmt 1       ## /Applications/Xcode.app/Contents/Developer/Toolchains/XcodeDefault.xctoolchain/usr/bin/../include/c++/v1/__locale:648:0
	.cfi_startproc
## %bb.0:
	pushq	%rbp
	.cfi_def_cfa_offset 16
	.cfi_offset %rbp, -16
	movq	%rsp, %rbp
	.cfi_def_cfa_register %rbp
	subq	$16, %rsp
	movb	%sil, %al
	movq	%rdi, -8(%rbp)
	movb	%al, -9(%rbp)
	movq	-8(%rbp), %rdi
Ltmp320:
	.loc	5 649 25 prologue_end   ## /Applications/Xcode.app/Contents/Developer/Toolchains/XcodeDefault.xctoolchain/usr/bin/../include/c++/v1/__locale:649:25
	movb	-9(%rbp), %al
	.loc	5 649 16 is_stmt 0      ## /Applications/Xcode.app/Contents/Developer/Toolchains/XcodeDefault.xctoolchain/usr/bin/../include/c++/v1/__locale:649:16
	movq	(%rdi), %rcx
	movsbl	%al, %esi
	callq	*56(%rcx)
	.loc	5 649 9                 ## /Applications/Xcode.app/Contents/Developer/Toolchains/XcodeDefault.xctoolchain/usr/bin/../include/c++/v1/__locale:649:9
	movsbl	%al, %eax
	addq	$16, %rsp
	popq	%rbp
	retq
Ltmp321:
Lfunc_end62:
	.cfi_endproc
                                        ## -- End function
	.p2align	4, 0x90         ## -- Begin function _ZNSt3__18ios_base8setstateEj
__ZNSt3__18ios_base8setstateEj:         ## @_ZNSt3__18ios_base8setstateEj
Lfunc_begin63:
	.loc	1 547 0 is_stmt 1       ## /Applications/Xcode.app/Contents/Developer/Toolchains/XcodeDefault.xctoolchain/usr/bin/../include/c++/v1/ios:547:0
	.cfi_startproc
## %bb.0:
	pushq	%rbp
	.cfi_def_cfa_offset 16
	.cfi_offset %rbp, -16
	movq	%rsp, %rbp
	.cfi_def_cfa_register %rbp
	subq	$16, %rsp
	movq	%rdi, -8(%rbp)
	movl	%esi, -12(%rbp)
	movq	-8(%rbp), %rdi
Ltmp322:
	.loc	1 548 11 prologue_end   ## /Applications/Xcode.app/Contents/Developer/Toolchains/XcodeDefault.xctoolchain/usr/bin/../include/c++/v1/ios:548:11
	movl	32(%rdi), %esi
	.loc	1 548 22 is_stmt 0      ## /Applications/Xcode.app/Contents/Developer/Toolchains/XcodeDefault.xctoolchain/usr/bin/../include/c++/v1/ios:548:22
	orl	-12(%rbp), %esi
	.loc	1 548 5                 ## /Applications/Xcode.app/Contents/Developer/Toolchains/XcodeDefault.xctoolchain/usr/bin/../include/c++/v1/ios:548:5
	callq	__ZNSt3__18ios_base5clearEj
	.loc	1 549 1 is_stmt 1       ## /Applications/Xcode.app/Contents/Developer/Toolchains/XcodeDefault.xctoolchain/usr/bin/../include/c++/v1/ios:549:1
	addq	$16, %rsp
	popq	%rbp
	retq
Ltmp323:
Lfunc_end63:
	.cfi_endproc
                                        ## -- End function
	.section	__TEXT,__cstring,cstring_literals
L_.str:                                 ## @.str
	.asciz	"Call Initializer!"

L_.str.1:                               ## @.str.1
	.asciz	"String Inititalizer!"

L_.str.2:                               ## @.str.2
	.asciz	"Copy Initializer!"

L_.str.3:                               ## @.str.3
	.asciz	"Move Inititalizer!"

L_.str.4:                               ## @.str.4
	.asciz	"Copy operator!"

L_.str.5:                               ## @.str.5
	.asciz	"--- Init ---"

L_.str.6:                               ## @.str.6
	.asciz	"abc"

L_.str.7:                               ## @.str.7
	.asciz	"--- Before move ---"

L_.str.8:                               ## @.str.8
	.asciz	"--- After move ---"

L_.str.9:                               ## @.str.9
	.asciz	"---------- & ----------"

L_.str.10:                              ## @.str.10
	.asciz	"def"

L_.str.11:                              ## @.str.11
	.asciz	"--- Before Swap ---"

L_.str.12:                              ## @.str.12
	.asciz	"--- After Swap ---"

L_.str.13:                              ## @.str.13
	.asciz	"\nEND_PROCESS"
