	.section	__TEXT,__text,regular,pure_instructions
	.build_version macos, 10, 15	sdk_version 10, 15
	.file	1 "/Applications/Xcode.app/Contents/Developer/Toolchains/XcodeDefault.xctoolchain/usr/bin/../include/c++/v1" "ios"
	.file	2 "/Applications/Xcode.app/Contents/Developer/Toolchains/XcodeDefault.xctoolchain/usr/lib/clang/11.0.0/include" "stddef.h"
	.file	3 "/Applications/Xcode.app/Contents/Developer/Platforms/MacOSX.platform/Developer/SDKs/MacOSX.sdk/usr/include/i386" "_types.h"
	.file	4 "/Applications/Xcode.app/Contents/Developer/Platforms/MacOSX.platform/Developer/SDKs/MacOSX.sdk/usr/include/sys/_types" "_size_t.h"
	.file	5 "/Applications/Xcode.app/Contents/Developer/Toolchains/XcodeDefault.xctoolchain/usr/bin/../include/c++/v1" "__locale"
	.file	6 "/Applications/Xcode.app/Contents/Developer/Toolchains/XcodeDefault.xctoolchain/usr/bin/../include/c++/v1" "string"
	.file	7 "/Applications/Xcode.app/Contents/Developer/Toolchains/XcodeDefault.xctoolchain/usr/bin/../include/c++/v1" "memory"
	.file	8 "/Applications/Xcode.app/Contents/Developer/Toolchains/XcodeDefault.xctoolchain/usr/bin/../include/c++/v1" "type_traits"
	.file	9 "/Applications/Xcode.app/Contents/Developer/Toolchains/XcodeDefault.xctoolchain/usr/bin/../include/c++/v1" "initializer_list"
	.file	10 "/Applications/Xcode.app/Contents/Developer/Toolchains/XcodeDefault.xctoolchain/usr/bin/../include/c++/v1" "string_view"
	.file	11 "/Applications/Xcode.app/Contents/Developer/Toolchains/XcodeDefault.xctoolchain/usr/bin/../include/c++/v1" "__string"
	.file	12 "/Applications/Xcode.app/Contents/Developer/Toolchains/XcodeDefault.xctoolchain/usr/bin/../include/c++/v1" "iosfwd"
	.file	13 "/Applications/Xcode.app/Contents/Developer/Toolchains/XcodeDefault.xctoolchain/usr/bin/../include/c++/v1" "mutex"
	.file	14 "/Applications/Xcode.app/Contents/Developer/Platforms/MacOSX.platform/Developer/SDKs/MacOSX.sdk/usr/include/sys/_types" "_int32_t.h"
	.file	15 "/Applications/Xcode.app/Contents/Developer/Toolchains/XcodeDefault.xctoolchain/usr/bin/../include/c++/v1" "new"
	.file	16 "/Applications/Xcode.app/Contents/Developer/Toolchains/XcodeDefault.xctoolchain/usr/bin/../include/c++/v1" "limits"
	.file	17 "/Users/hansblackcat/Documents/Git/C_Cpp/Cpplang" "shared_and_weak_ptr.cpp"
	.file	18 "/Applications/Xcode.app/Contents/Developer/Toolchains/XcodeDefault.xctoolchain/usr/bin/../include/c++/v1" "typeinfo"
	.file	19 "/Applications/Xcode.app/Contents/Developer/Toolchains/XcodeDefault.xctoolchain/usr/bin/../include/c++/v1" "__nullptr"
	.file	20 "/Applications/Xcode.app/Contents/Developer/Toolchains/XcodeDefault.xctoolchain/usr/bin/../include/c++/v1" "iterator"
	.file	21 "/Applications/Xcode.app/Contents/Developer/Toolchains/XcodeDefault.xctoolchain/usr/bin/../include/c++/v1" "streambuf"
	.file	22 "/Applications/Xcode.app/Contents/Developer/Toolchains/XcodeDefault.xctoolchain/usr/bin/../include/c++/v1" "ostream"
	.file	23 "/Applications/Xcode.app/Contents/Developer/Toolchains/XcodeDefault.xctoolchain/usr/bin/../include/c++/v1" "vector"
	.file	24 "/Applications/Xcode.app/Contents/Developer/Toolchains/XcodeDefault.xctoolchain/usr/bin/../include/c++/v1" "__split_buffer"
	.file	25 "/Applications/Xcode.app/Contents/Developer/Toolchains/XcodeDefault.xctoolchain/usr/bin/../include/c++/v1" "exception"
	.file	26 "/Applications/Xcode.app/Contents/Developer/Toolchains/XcodeDefault.xctoolchain/usr/bin/../include/c++/v1" "stdexcept"
	.file	27 "/Applications/Xcode.app/Contents/Developer/Toolchains/XcodeDefault.xctoolchain/usr/bin/../include/c++/v1" "cstddef"
	.file	28 "/Applications/Xcode.app/Contents/Developer/Toolchains/XcodeDefault.xctoolchain/usr/lib/clang/11.0.0/include" "__stddef_max_align_t.h"
	.file	29 "/Applications/Xcode.app/Contents/Developer/Toolchains/XcodeDefault.xctoolchain/usr/bin/../include/c++/v1" "cstring"
	.file	30 "/Applications/Xcode.app/Contents/Developer/Platforms/MacOSX.platform/Developer/SDKs/MacOSX.sdk/usr/include" "string.h"
	.file	31 "/Applications/Xcode.app/Contents/Developer/Toolchains/XcodeDefault.xctoolchain/usr/bin/../include/c++/v1" "string.h"
	.file	32 "/Applications/Xcode.app/Contents/Developer/Platforms/MacOSX.platform/Developer/SDKs/MacOSX.sdk/usr/include/sys/_types" "_int8_t.h"
	.file	33 "/Applications/Xcode.app/Contents/Developer/Toolchains/XcodeDefault.xctoolchain/usr/bin/../include/c++/v1" "cstdint"
	.file	34 "/Applications/Xcode.app/Contents/Developer/Platforms/MacOSX.platform/Developer/SDKs/MacOSX.sdk/usr/include/sys/_types" "_int16_t.h"
	.file	35 "/Applications/Xcode.app/Contents/Developer/Platforms/MacOSX.platform/Developer/SDKs/MacOSX.sdk/usr/include/sys/_types" "_int64_t.h"
	.file	36 "/Applications/Xcode.app/Contents/Developer/Platforms/MacOSX.platform/Developer/SDKs/MacOSX.sdk/usr/include/_types" "_uint8_t.h"
	.file	37 "/Applications/Xcode.app/Contents/Developer/Platforms/MacOSX.platform/Developer/SDKs/MacOSX.sdk/usr/include/_types" "_uint16_t.h"
	.file	38 "/Applications/Xcode.app/Contents/Developer/Platforms/MacOSX.platform/Developer/SDKs/MacOSX.sdk/usr/include/_types" "_uint32_t.h"
	.file	39 "/Applications/Xcode.app/Contents/Developer/Platforms/MacOSX.platform/Developer/SDKs/MacOSX.sdk/usr/include/_types" "_uint64_t.h"
	.file	40 "/Applications/Xcode.app/Contents/Developer/Platforms/MacOSX.platform/Developer/SDKs/MacOSX.sdk/usr/include" "stdint.h"
	.file	41 "/Applications/Xcode.app/Contents/Developer/Platforms/MacOSX.platform/Developer/SDKs/MacOSX.sdk/usr/include/sys/_types" "_intptr_t.h"
	.file	42 "/Applications/Xcode.app/Contents/Developer/Platforms/MacOSX.platform/Developer/SDKs/MacOSX.sdk/usr/include/sys/_types" "_uintptr_t.h"
	.file	43 "/Applications/Xcode.app/Contents/Developer/Platforms/MacOSX.platform/Developer/SDKs/MacOSX.sdk/usr/include/_types" "_intmax_t.h"
	.file	44 "/Applications/Xcode.app/Contents/Developer/Platforms/MacOSX.platform/Developer/SDKs/MacOSX.sdk/usr/include/_types" "_uintmax_t.h"
	.file	45 "/Applications/Xcode.app/Contents/Developer/Toolchains/XcodeDefault.xctoolchain/usr/bin/../include/c++/v1" "cstdlib"
	.file	46 "/Applications/Xcode.app/Contents/Developer/Platforms/MacOSX.platform/Developer/SDKs/MacOSX.sdk/usr/include" "stdlib.h"
	.file	47 "/Applications/Xcode.app/Contents/Developer/Platforms/MacOSX.platform/Developer/SDKs/MacOSX.sdk/usr/include/malloc" "_malloc.h"
	.file	48 "/Applications/Xcode.app/Contents/Developer/Toolchains/XcodeDefault.xctoolchain/usr/bin/../include/c++/v1" "stdlib.h"
	.file	49 "/Applications/Xcode.app/Contents/Developer/Platforms/MacOSX.platform/Developer/SDKs/MacOSX.sdk/usr/include" "_stdio.h"
	.file	50 "/Applications/Xcode.app/Contents/Developer/Platforms/MacOSX.platform/Developer/SDKs/MacOSX.sdk/usr/include/sys" "_types.h"
	.file	51 "/Applications/Xcode.app/Contents/Developer/Toolchains/XcodeDefault.xctoolchain/usr/bin/../include/c++/v1" "cstdio"
	.file	52 "/Applications/Xcode.app/Contents/Developer/Platforms/MacOSX.platform/Developer/SDKs/MacOSX.sdk/usr/include" "stdio.h"
	.file	53 "/Applications/Xcode.app/Contents/Developer/Platforms/MacOSX.platform/Developer/SDKs/MacOSX.sdk/usr/include" "_ctype.h"
	.file	54 "/Applications/Xcode.app/Contents/Developer/Toolchains/XcodeDefault.xctoolchain/usr/bin/../include/c++/v1" "cctype"
	.file	55 "/Applications/Xcode.app/Contents/Developer/Platforms/MacOSX.platform/Developer/SDKs/MacOSX.sdk/usr/include/sys/_types" "_wint_t.h"
	.file	56 "/Applications/Xcode.app/Contents/Developer/Toolchains/XcodeDefault.xctoolchain/usr/bin/../include/c++/v1" "cwctype"
	.file	57 "/Applications/Xcode.app/Contents/Developer/Platforms/MacOSX.platform/Developer/SDKs/MacOSX.sdk/usr/include" "_types.h"
	.file	58 "/Applications/Xcode.app/Contents/Developer/Platforms/MacOSX.platform/Developer/SDKs/MacOSX.sdk/usr/include/_types" "_wctrans_t.h"
	.file	59 "/Applications/Xcode.app/Contents/Developer/Platforms/MacOSX.platform/Developer/SDKs/MacOSX.sdk/usr/include/_types" "_wctype_t.h"
	.file	60 "/Applications/Xcode.app/Contents/Developer/Platforms/MacOSX.platform/Developer/SDKs/MacOSX.sdk/usr/include" "_wctype.h"
	.file	61 "/Applications/Xcode.app/Contents/Developer/Platforms/MacOSX.platform/Developer/SDKs/MacOSX.sdk/usr/include" "wctype.h"
	.file	62 "/Applications/Xcode.app/Contents/Developer/Platforms/MacOSX.platform/Developer/SDKs/MacOSX.sdk/usr/include/sys/_types" "_mbstate_t.h"
	.file	63 "/Applications/Xcode.app/Contents/Developer/Toolchains/XcodeDefault.xctoolchain/usr/bin/../include/c++/v1" "cwchar"
	.file	64 "/Applications/Xcode.app/Contents/Developer/Platforms/MacOSX.platform/Developer/SDKs/MacOSX.sdk/usr/include" "time.h"
	.file	65 "/Applications/Xcode.app/Contents/Developer/Platforms/MacOSX.platform/Developer/SDKs/MacOSX.sdk/usr/include" "wchar.h"
	.file	66 "/Applications/Xcode.app/Contents/Developer/Toolchains/XcodeDefault.xctoolchain/usr/bin/../include/c++/v1" "wchar.h"
	.file	67 "/Applications/Xcode.app/Contents/Developer/Platforms/MacOSX.platform/Developer/SDKs/MacOSX.sdk/usr/include/sys/_types" "_clock_t.h"
	.file	68 "/Applications/Xcode.app/Contents/Developer/Toolchains/XcodeDefault.xctoolchain/usr/bin/../include/c++/v1" "ctime"
	.file	69 "/Applications/Xcode.app/Contents/Developer/Platforms/MacOSX.platform/Developer/SDKs/MacOSX.sdk/usr/include/sys/_types" "_time_t.h"
	.file	70 "/Applications/Xcode.app/Contents/Developer/Toolchains/XcodeDefault.xctoolchain/usr/bin/../include/c++/v1" "chrono"
	.globl	_main                   ## -- Begin function main
	.p2align	4, 0x90
_main:                                  ## @main
Lfunc_begin0:
	.loc	17 20 0                 ## shared_and_weak_ptr.cpp:20:0
	.cfi_startproc
	.cfi_personality 155, ___gxx_personality_v0
	.cfi_lsda 16, Lexception0
## %bb.0:
	pushq	%rbp
	.cfi_def_cfa_offset 16
	.cfi_offset %rbp, -16
	movq	%rsp, %rbp
	.cfi_def_cfa_register %rbp
	subq	$320, %rsp              ## imm = 0x140
	leaq	-24(%rbp), %rdi
Ltmp43:
	.loc	17 21 37 prologue_end   ## shared_and_weak_ptr.cpp:21:37
	callq	__ZNSt3__16vectorINS_10shared_ptrI1AEENS_9allocatorIS3_EEEC1Ev
Ltmp0:
	movl	$8, %edi
	.loc	17 23 38                ## shared_and_weak_ptr.cpp:23:38
	callq	__Znwm
Ltmp1:
	movq	%rax, -168(%rbp)        ## 8-byte Spill
	jmp	LBB0_1
LBB0_1:
	.loc	17 0 38 is_stmt 0       ## shared_and_weak_ptr.cpp:0:38
	movq	-168(%rbp), %rax        ## 8-byte Reload
Ltmp2:
	movq	-168(%rbp), %rdi        ## 8-byte Reload
	movq	%rax, -176(%rbp)        ## 8-byte Spill
	.loc	17 23 42                ## shared_and_weak_ptr.cpp:23:42
	callq	__ZN1AC1Ev
Ltmp3:
	jmp	LBB0_2
LBB0_2:
	.loc	17 23 19                ## shared_and_weak_ptr.cpp:23:19
	movl	$0, -56(%rbp)
	movl	-56(%rbp), %edx
Ltmp5:
	leaq	-40(%rbp), %rdi
	movq	-176(%rbp), %rsi        ## 8-byte Reload
	callq	__ZNSt3__110shared_ptrI1AEC1IS1_EEPT_NS_9enable_ifIXsr14is_convertibleIS5_PS1_EE5valueENS2_5__natEE4typeE
Ltmp6:
	jmp	LBB0_3
LBB0_3:
Ltmp7:
	.loc	17 0 19                 ## shared_and_weak_ptr.cpp:0:19
	leaq	-24(%rbp), %rdi
	leaq	-40(%rbp), %rsi
	.loc	17 23 9                 ## shared_and_weak_ptr.cpp:23:9
	callq	__ZNSt3__16vectorINS_10shared_ptrI1AEENS_9allocatorIS3_EEE9push_backEOS3_
Ltmp8:
	jmp	LBB0_4
LBB0_4:
	.loc	17 0 9                  ## shared_and_weak_ptr.cpp:0:9
	leaq	-40(%rbp), %rdi
	.loc	17 23 5                 ## shared_and_weak_ptr.cpp:23:5
	callq	__ZNSt3__110shared_ptrI1AED1Ev
Ltmp10:
	xorl	%eax, %eax
	movl	%eax, %esi
	leaq	-24(%rbp), %rdi
	.loc	17 24 38 is_stmt 1      ## shared_and_weak_ptr.cpp:24:38
	callq	__ZNSt3__16vectorINS_10shared_ptrI1AEENS_9allocatorIS3_EEEixEm
Ltmp11:
	movq	%rax, -184(%rbp)        ## 8-byte Spill
	jmp	LBB0_5
LBB0_5:
	.loc	17 0 38 is_stmt 0       ## shared_and_weak_ptr.cpp:0:38
	leaq	-72(%rbp), %rax
	.loc	17 24 19                ## shared_and_weak_ptr.cpp:24:19
	movq	%rax, %rdi
	movq	-184(%rbp), %rsi        ## 8-byte Reload
	movq	%rax, -192(%rbp)        ## 8-byte Spill
	callq	__ZNSt3__110shared_ptrI1AEC1ERKS2_
Ltmp12:
	leaq	-24(%rbp), %rdi
	movq	-192(%rbp), %rsi        ## 8-byte Reload
	.loc	17 24 9                 ## shared_and_weak_ptr.cpp:24:9
	callq	__ZNSt3__16vectorINS_10shared_ptrI1AEENS_9allocatorIS3_EEE9push_backEOS3_
Ltmp13:
	jmp	LBB0_6
LBB0_6:
	.loc	17 0 9                  ## shared_and_weak_ptr.cpp:0:9
	leaq	-72(%rbp), %rdi
	.loc	17 24 5                 ## shared_and_weak_ptr.cpp:24:5
	callq	__ZNSt3__110shared_ptrI1AED1Ev
Ltmp15:
	leaq	-24(%rbp), %rdi
	movl	$1, %esi
	.loc	17 25 38 is_stmt 1      ## shared_and_weak_ptr.cpp:25:38
	callq	__ZNSt3__16vectorINS_10shared_ptrI1AEENS_9allocatorIS3_EEEixEm
Ltmp16:
	movq	%rax, -200(%rbp)        ## 8-byte Spill
	jmp	LBB0_7
LBB0_7:
	.loc	17 0 38 is_stmt 0       ## shared_and_weak_ptr.cpp:0:38
	leaq	-88(%rbp), %rax
	.loc	17 25 19                ## shared_and_weak_ptr.cpp:25:19
	movq	%rax, %rdi
	movq	-200(%rbp), %rsi        ## 8-byte Reload
	movq	%rax, -208(%rbp)        ## 8-byte Spill
	callq	__ZNSt3__110shared_ptrI1AEC1ERKS2_
Ltmp17:
	leaq	-24(%rbp), %rdi
	movq	-208(%rbp), %rsi        ## 8-byte Reload
	.loc	17 25 9                 ## shared_and_weak_ptr.cpp:25:9
	callq	__ZNSt3__16vectorINS_10shared_ptrI1AEENS_9allocatorIS3_EEE9push_backEOS3_
Ltmp18:
	jmp	LBB0_8
LBB0_8:
	.loc	17 0 9                  ## shared_and_weak_ptr.cpp:0:9
	leaq	-88(%rbp), %rdi
	.loc	17 25 5                 ## shared_and_weak_ptr.cpp:25:5
	callq	__ZNSt3__110shared_ptrI1AED1Ev
Ltmp20:
	.loc	17 27 15 is_stmt 1      ## shared_and_weak_ptr.cpp:27:15
	movq	__ZNSt3__14coutE@GOTPCREL(%rip), %rdi
	leaq	L_.str(%rip), %rsi
	callq	__ZNSt3__1lsINS_11char_traitsIcEEEERNS_13basic_ostreamIcT_EES6_PKc
Ltmp21:
	movq	%rax, -216(%rbp)        ## 8-byte Spill
	jmp	LBB0_9
LBB0_9:
Ltmp22:
	.loc	17 27 36 is_stmt 0      ## shared_and_weak_ptr.cpp:27:36
	leaq	__ZNSt3__1L4endlIcNS_11char_traitsIcEEEERNS_13basic_ostreamIT_T0_EES7_(%rip), %rsi
	movq	-216(%rbp), %rdi        ## 8-byte Reload
	callq	__ZNSt3__113basic_ostreamIcNS_11char_traitsIcEEElsEPFRS3_S4_E
Ltmp23:
	movq	%rax, -224(%rbp)        ## 8-byte Spill
	jmp	LBB0_10
LBB0_10:
	.loc	17 0 36                 ## shared_and_weak_ptr.cpp:0:36
	leaq	-24(%rbp), %rax
	.loc	17 28 19 is_stmt 1      ## shared_and_weak_ptr.cpp:28:19
	movq	%rax, %rdi
	movq	%rax, -232(%rbp)        ## 8-byte Spill
	callq	__ZNSt3__16vectorINS_10shared_ptrI1AEENS_9allocatorIS3_EEE5beginEv
	movq	%rax, -104(%rbp)
	xorl	%ecx, %ecx
	movl	%ecx, %edx
	leaq	-96(%rbp), %rdi
	leaq	-104(%rbp), %rsi
	.loc	17 28 15 is_stmt 0      ## shared_and_weak_ptr.cpp:28:15
	callq	__ZNSt3__111__wrap_iterIPKNS_10shared_ptrI1AEEEC1IPS3_EERKNS0_IT_EEPNS_9enable_ifIXsr14is_convertibleIS9_S5_EE5valueEvE4typeE
	.loc	17 28 9                 ## shared_and_weak_ptr.cpp:28:9
	movq	-96(%rbp), %rsi
Ltmp24:
	movq	-232(%rbp), %rdi        ## 8-byte Reload
	callq	__ZNSt3__16vectorINS_10shared_ptrI1AEENS_9allocatorIS3_EEE5eraseENS_11__wrap_iterIPKS3_EE
Ltmp25:
	movq	%rax, -240(%rbp)        ## 8-byte Spill
	jmp	LBB0_11
LBB0_11:
	.loc	17 0 9                  ## shared_and_weak_ptr.cpp:0:9
	movq	-240(%rbp), %rax        ## 8-byte Reload
	.loc	17 28 9                 ## shared_and_weak_ptr.cpp:28:9
	movq	%rax, -112(%rbp)
Ltmp26:
	.loc	17 30 15 is_stmt 1      ## shared_and_weak_ptr.cpp:30:15
	movq	__ZNSt3__14coutE@GOTPCREL(%rip), %rdi
	leaq	L_.str.1(%rip), %rsi
	callq	__ZNSt3__1lsINS_11char_traitsIcEEEERNS_13basic_ostreamIcT_EES6_PKc
Ltmp27:
	movq	%rax, -248(%rbp)        ## 8-byte Spill
	jmp	LBB0_12
LBB0_12:
Ltmp28:
	.loc	17 30 37 is_stmt 0      ## shared_and_weak_ptr.cpp:30:37
	leaq	__ZNSt3__1L4endlIcNS_11char_traitsIcEEEERNS_13basic_ostreamIT_T0_EES7_(%rip), %rsi
	movq	-248(%rbp), %rdi        ## 8-byte Reload
	callq	__ZNSt3__113basic_ostreamIcNS_11char_traitsIcEEElsEPFRS3_S4_E
Ltmp29:
	movq	%rax, -256(%rbp)        ## 8-byte Spill
	jmp	LBB0_13
LBB0_13:
	.loc	17 0 37                 ## shared_and_weak_ptr.cpp:0:37
	leaq	-24(%rbp), %rax
	.loc	17 31 19 is_stmt 1      ## shared_and_weak_ptr.cpp:31:19
	movq	%rax, %rdi
	movq	%rax, -264(%rbp)        ## 8-byte Spill
	callq	__ZNSt3__16vectorINS_10shared_ptrI1AEENS_9allocatorIS3_EEE5beginEv
	movq	%rax, -128(%rbp)
	xorl	%ecx, %ecx
	movl	%ecx, %edx
	leaq	-120(%rbp), %rdi
	leaq	-128(%rbp), %rsi
	.loc	17 31 15 is_stmt 0      ## shared_and_weak_ptr.cpp:31:15
	callq	__ZNSt3__111__wrap_iterIPKNS_10shared_ptrI1AEEEC1IPS3_EERKNS0_IT_EEPNS_9enable_ifIXsr14is_convertibleIS9_S5_EE5valueEvE4typeE
	.loc	17 31 9                 ## shared_and_weak_ptr.cpp:31:9
	movq	-120(%rbp), %rsi
Ltmp30:
	movq	-264(%rbp), %rdi        ## 8-byte Reload
	callq	__ZNSt3__16vectorINS_10shared_ptrI1AEENS_9allocatorIS3_EEE5eraseENS_11__wrap_iterIPKS3_EE
Ltmp31:
	movq	%rax, -272(%rbp)        ## 8-byte Spill
	jmp	LBB0_14
LBB0_14:
	.loc	17 0 9                  ## shared_and_weak_ptr.cpp:0:9
	movq	-272(%rbp), %rax        ## 8-byte Reload
	.loc	17 31 9                 ## shared_and_weak_ptr.cpp:31:9
	movq	%rax, -136(%rbp)
Ltmp32:
	.loc	17 33 15 is_stmt 1      ## shared_and_weak_ptr.cpp:33:15
	movq	__ZNSt3__14coutE@GOTPCREL(%rip), %rdi
	leaq	L_.str.2(%rip), %rsi
	callq	__ZNSt3__1lsINS_11char_traitsIcEEEERNS_13basic_ostreamIcT_EES6_PKc
Ltmp33:
	movq	%rax, -280(%rbp)        ## 8-byte Spill
	jmp	LBB0_15
LBB0_15:
Ltmp34:
	.loc	17 33 36 is_stmt 0      ## shared_and_weak_ptr.cpp:33:36
	leaq	__ZNSt3__1L4endlIcNS_11char_traitsIcEEEERNS_13basic_ostreamIT_T0_EES7_(%rip), %rsi
	movq	-280(%rbp), %rdi        ## 8-byte Reload
	callq	__ZNSt3__113basic_ostreamIcNS_11char_traitsIcEEElsEPFRS3_S4_E
Ltmp35:
	movq	%rax, -288(%rbp)        ## 8-byte Spill
	jmp	LBB0_16
LBB0_16:
	.loc	17 0 36                 ## shared_and_weak_ptr.cpp:0:36
	leaq	-24(%rbp), %rax
	.loc	17 34 19 is_stmt 1      ## shared_and_weak_ptr.cpp:34:19
	movq	%rax, %rdi
	movq	%rax, -296(%rbp)        ## 8-byte Spill
	callq	__ZNSt3__16vectorINS_10shared_ptrI1AEENS_9allocatorIS3_EEE5beginEv
	movq	%rax, -152(%rbp)
	xorl	%ecx, %ecx
	movl	%ecx, %edx
	leaq	-144(%rbp), %rdi
	leaq	-152(%rbp), %rsi
	.loc	17 34 15 is_stmt 0      ## shared_and_weak_ptr.cpp:34:15
	callq	__ZNSt3__111__wrap_iterIPKNS_10shared_ptrI1AEEEC1IPS3_EERKNS0_IT_EEPNS_9enable_ifIXsr14is_convertibleIS9_S5_EE5valueEvE4typeE
	.loc	17 34 9                 ## shared_and_weak_ptr.cpp:34:9
	movq	-144(%rbp), %rsi
Ltmp36:
	movq	-296(%rbp), %rdi        ## 8-byte Reload
	callq	__ZNSt3__16vectorINS_10shared_ptrI1AEENS_9allocatorIS3_EEE5eraseENS_11__wrap_iterIPKS3_EE
Ltmp37:
	movq	%rax, -304(%rbp)        ## 8-byte Spill
	jmp	LBB0_17
LBB0_17:
	.loc	17 0 9                  ## shared_and_weak_ptr.cpp:0:9
	movq	-304(%rbp), %rax        ## 8-byte Reload
	.loc	17 34 9                 ## shared_and_weak_ptr.cpp:34:9
	movq	%rax, -160(%rbp)
Ltmp38:
	.loc	17 36 15 is_stmt 1      ## shared_and_weak_ptr.cpp:36:15
	movq	__ZNSt3__14coutE@GOTPCREL(%rip), %rdi
	leaq	L_.str.3(%rip), %rsi
	callq	__ZNSt3__1lsINS_11char_traitsIcEEEERNS_13basic_ostreamIcT_EES6_PKc
Ltmp39:
	movq	%rax, -312(%rbp)        ## 8-byte Spill
	jmp	LBB0_18
LBB0_18:
Ltmp40:
	.loc	17 36 32 is_stmt 0      ## shared_and_weak_ptr.cpp:36:32
	leaq	__ZNSt3__1L4endlIcNS_11char_traitsIcEEEERNS_13basic_ostreamIT_T0_EES7_(%rip), %rsi
	movq	-312(%rbp), %rdi        ## 8-byte Reload
	callq	__ZNSt3__113basic_ostreamIcNS_11char_traitsIcEEElsEPFRS3_S4_E
Ltmp41:
	movq	%rax, -320(%rbp)        ## 8-byte Spill
	jmp	LBB0_19
LBB0_19:
	.loc	17 37 1 is_stmt 1       ## shared_and_weak_ptr.cpp:37:1
	leaq	-24(%rbp), %rdi
	callq	__ZNSt3__16vectorINS_10shared_ptrI1AEENS_9allocatorIS3_EEED1Ev
	xorl	%eax, %eax
	addq	$320, %rsp              ## imm = 0x140
	popq	%rbp
	retq
LBB0_20:
Ltmp42:
	movl	%edx, %ecx
	movq	%rax, -48(%rbp)
	movl	%ecx, -52(%rbp)
	jmp	LBB0_25
LBB0_21:
Ltmp4:
	movl	%edx, %ecx
	movq	%rax, -48(%rbp)
	movl	%ecx, -52(%rbp)
	movq	-168(%rbp), %rdi        ## 8-byte Reload
	.loc	17 23 38                ## shared_and_weak_ptr.cpp:23:38
	callq	__ZdlPv
	jmp	LBB0_25
LBB0_22:
Ltmp9:
	.loc	17 37 1                 ## shared_and_weak_ptr.cpp:37:1
	movl	%edx, %ecx
	movq	%rax, -48(%rbp)
	movl	%ecx, -52(%rbp)
	.loc	17 23 5                 ## shared_and_weak_ptr.cpp:23:5
	leaq	-40(%rbp), %rdi
	callq	__ZNSt3__110shared_ptrI1AED1Ev
	jmp	LBB0_25
LBB0_23:
Ltmp14:
	.loc	17 37 1                 ## shared_and_weak_ptr.cpp:37:1
	movl	%edx, %ecx
	movq	%rax, -48(%rbp)
	movl	%ecx, -52(%rbp)
	.loc	17 24 5                 ## shared_and_weak_ptr.cpp:24:5
	leaq	-72(%rbp), %rdi
	callq	__ZNSt3__110shared_ptrI1AED1Ev
	jmp	LBB0_25
LBB0_24:
Ltmp19:
	.loc	17 37 1                 ## shared_and_weak_ptr.cpp:37:1
	movl	%edx, %ecx
	movq	%rax, -48(%rbp)
	movl	%ecx, -52(%rbp)
	.loc	17 25 5                 ## shared_and_weak_ptr.cpp:25:5
	leaq	-88(%rbp), %rdi
	callq	__ZNSt3__110shared_ptrI1AED1Ev
LBB0_25:
	.loc	17 37 1                 ## shared_and_weak_ptr.cpp:37:1
	leaq	-24(%rbp), %rdi
	callq	__ZNSt3__16vectorINS_10shared_ptrI1AEENS_9allocatorIS3_EEED1Ev
## %bb.26:
	movq	-48(%rbp), %rdi
	callq	__Unwind_Resume
	ud2
Ltmp44:
Lfunc_end0:
	.cfi_endproc
	.section	__TEXT,__gcc_except_tab
	.p2align	2
GCC_except_table0:
Lexception0:
	.byte	255                     ## @LPStart Encoding = omit
	.byte	255                     ## @TType Encoding = omit
	.byte	1                       ## Call site Encoding = uleb128
	.uleb128 Lcst_end0-Lcst_begin0
Lcst_begin0:
	.uleb128 Ltmp0-Lfunc_begin0     ## >> Call Site 1 <<
	.uleb128 Ltmp1-Ltmp0            ##   Call between Ltmp0 and Ltmp1
	.uleb128 Ltmp42-Lfunc_begin0    ##     jumps to Ltmp42
	.byte	0                       ##   On action: cleanup
	.uleb128 Ltmp2-Lfunc_begin0     ## >> Call Site 2 <<
	.uleb128 Ltmp3-Ltmp2            ##   Call between Ltmp2 and Ltmp3
	.uleb128 Ltmp4-Lfunc_begin0     ##     jumps to Ltmp4
	.byte	0                       ##   On action: cleanup
	.uleb128 Ltmp5-Lfunc_begin0     ## >> Call Site 3 <<
	.uleb128 Ltmp6-Ltmp5            ##   Call between Ltmp5 and Ltmp6
	.uleb128 Ltmp42-Lfunc_begin0    ##     jumps to Ltmp42
	.byte	0                       ##   On action: cleanup
	.uleb128 Ltmp7-Lfunc_begin0     ## >> Call Site 4 <<
	.uleb128 Ltmp8-Ltmp7            ##   Call between Ltmp7 and Ltmp8
	.uleb128 Ltmp9-Lfunc_begin0     ##     jumps to Ltmp9
	.byte	0                       ##   On action: cleanup
	.uleb128 Ltmp10-Lfunc_begin0    ## >> Call Site 5 <<
	.uleb128 Ltmp11-Ltmp10          ##   Call between Ltmp10 and Ltmp11
	.uleb128 Ltmp42-Lfunc_begin0    ##     jumps to Ltmp42
	.byte	0                       ##   On action: cleanup
	.uleb128 Ltmp12-Lfunc_begin0    ## >> Call Site 6 <<
	.uleb128 Ltmp13-Ltmp12          ##   Call between Ltmp12 and Ltmp13
	.uleb128 Ltmp14-Lfunc_begin0    ##     jumps to Ltmp14
	.byte	0                       ##   On action: cleanup
	.uleb128 Ltmp15-Lfunc_begin0    ## >> Call Site 7 <<
	.uleb128 Ltmp16-Ltmp15          ##   Call between Ltmp15 and Ltmp16
	.uleb128 Ltmp42-Lfunc_begin0    ##     jumps to Ltmp42
	.byte	0                       ##   On action: cleanup
	.uleb128 Ltmp17-Lfunc_begin0    ## >> Call Site 8 <<
	.uleb128 Ltmp18-Ltmp17          ##   Call between Ltmp17 and Ltmp18
	.uleb128 Ltmp19-Lfunc_begin0    ##     jumps to Ltmp19
	.byte	0                       ##   On action: cleanup
	.uleb128 Ltmp20-Lfunc_begin0    ## >> Call Site 9 <<
	.uleb128 Ltmp41-Ltmp20          ##   Call between Ltmp20 and Ltmp41
	.uleb128 Ltmp42-Lfunc_begin0    ##     jumps to Ltmp42
	.byte	0                       ##   On action: cleanup
	.uleb128 Ltmp41-Lfunc_begin0    ## >> Call Site 10 <<
	.uleb128 Lfunc_end0-Ltmp41      ##   Call between Ltmp41 and Lfunc_end0
	.byte	0                       ##     has no landing pad
	.byte	0                       ##   On action: cleanup
Lcst_end0:
	.p2align	2
                                        ## -- End function
	.section	__TEXT,__text,regular,pure_instructions
	.p2align	4, 0x90         ## -- Begin function _ZNSt3__16vectorINS_10shared_ptrI1AEENS_9allocatorIS3_EEEC1Ev
__ZNSt3__16vectorINS_10shared_ptrI1AEENS_9allocatorIS3_EEEC1Ev: ## @_ZNSt3__16vectorINS_10shared_ptrI1AEENS_9allocatorIS3_EEEC1Ev
Lfunc_begin1:
	.loc	23 497 0                ## /Applications/Xcode.app/Contents/Developer/Toolchains/XcodeDefault.xctoolchain/usr/bin/../include/c++/v1/vector:497:0
	.cfi_startproc
## %bb.0:
	pushq	%rbp
	.cfi_def_cfa_offset 16
	.cfi_offset %rbp, -16
	movq	%rsp, %rbp
	.cfi_def_cfa_register %rbp
	subq	$16, %rsp
	movq	%rdi, -8(%rbp)
	movq	-8(%rbp), %rdi
Ltmp45:
	.loc	23 497 9 prologue_end   ## /Applications/Xcode.app/Contents/Developer/Toolchains/XcodeDefault.xctoolchain/usr/bin/../include/c++/v1/vector:497:9
	callq	__ZNSt3__16vectorINS_10shared_ptrI1AEENS_9allocatorIS3_EEEC2Ev
	.loc	23 501 9                ## /Applications/Xcode.app/Contents/Developer/Toolchains/XcodeDefault.xctoolchain/usr/bin/../include/c++/v1/vector:501:9
	addq	$16, %rsp
	popq	%rbp
	retq
Ltmp46:
Lfunc_end1:
	.cfi_endproc
                                        ## -- End function
	.p2align	4, 0x90         ## -- Begin function _ZNSt3__16vectorINS_10shared_ptrI1AEENS_9allocatorIS3_EEE9push_backEOS3_
__ZNSt3__16vectorINS_10shared_ptrI1AEENS_9allocatorIS3_EEE9push_backEOS3_: ## @_ZNSt3__16vectorINS_10shared_ptrI1AEENS_9allocatorIS3_EEE9push_backEOS3_
Lfunc_begin2:
	.loc	23 1648 0               ## /Applications/Xcode.app/Contents/Developer/Toolchains/XcodeDefault.xctoolchain/usr/bin/../include/c++/v1/vector:1648:0
	.cfi_startproc
## %bb.0:
	pushq	%rbp
	.cfi_def_cfa_offset 16
	.cfi_offset %rbp, -16
	movq	%rsp, %rbp
	.cfi_def_cfa_register %rbp
	subq	$64, %rsp
	movq	%rdi, -8(%rbp)
	movq	%rsi, -16(%rbp)
	movq	-8(%rbp), %rsi
Ltmp47:
	.loc	23 1649 15 prologue_end ## /Applications/Xcode.app/Contents/Developer/Toolchains/XcodeDefault.xctoolchain/usr/bin/../include/c++/v1/vector:1649:15
	movq	8(%rsi), %rdi
	.loc	23 1649 30 is_stmt 0    ## /Applications/Xcode.app/Contents/Developer/Toolchains/XcodeDefault.xctoolchain/usr/bin/../include/c++/v1/vector:1649:30
	movq	%rsi, %rax
	movq	%rdi, -32(%rbp)         ## 8-byte Spill
	movq	%rax, %rdi
	movq	%rsi, -40(%rbp)         ## 8-byte Spill
	callq	__ZNSt3__113__vector_baseINS_10shared_ptrI1AEENS_9allocatorIS3_EEE9__end_capEv
	movq	-32(%rbp), %rsi         ## 8-byte Reload
	.loc	23 1649 22              ## /Applications/Xcode.app/Contents/Developer/Toolchains/XcodeDefault.xctoolchain/usr/bin/../include/c++/v1/vector:1649:22
	cmpq	(%rax), %rsi
Ltmp48:
	.loc	23 1649 9               ## /Applications/Xcode.app/Contents/Developer/Toolchains/XcodeDefault.xctoolchain/usr/bin/../include/c++/v1/vector:1649:9
	jae	LBB2_2
## %bb.1:
Ltmp49:
	.loc	23 1651 34 is_stmt 1    ## /Applications/Xcode.app/Contents/Developer/Toolchains/XcodeDefault.xctoolchain/usr/bin/../include/c++/v1/vector:1651:34
	leaq	-24(%rbp), %rdi
Ltmp50:
	##DEBUG_VALUE: __annotator <- [$rdi+0]
	.loc	23 0 34 is_stmt 0       ## /Applications/Xcode.app/Contents/Developer/Toolchains/XcodeDefault.xctoolchain/usr/bin/../include/c++/v1/vector:0:34
	movq	-40(%rbp), %rsi         ## 8-byte Reload
	.loc	23 1651 34              ## /Applications/Xcode.app/Contents/Developer/Toolchains/XcodeDefault.xctoolchain/usr/bin/../include/c++/v1/vector:1651:34
	movl	$1, %edx
	callq	__ZNSt3__16vectorINS_10shared_ptrI1AEENS_9allocatorIS3_EEE24__RAII_IncreaseAnnotatorC1ERKS6_m
Ltmp51:
	.loc	23 0 34                 ## /Applications/Xcode.app/Contents/Developer/Toolchains/XcodeDefault.xctoolchain/usr/bin/../include/c++/v1/vector:0:34
	movq	-40(%rbp), %rdx         ## 8-byte Reload
	.loc	23 1652 41 is_stmt 1    ## /Applications/Xcode.app/Contents/Developer/Toolchains/XcodeDefault.xctoolchain/usr/bin/../include/c++/v1/vector:1652:41
	movq	%rdx, %rdi
	callq	__ZNSt3__113__vector_baseINS_10shared_ptrI1AEENS_9allocatorIS3_EEE7__allocEv
	movq	-40(%rbp), %rdx         ## 8-byte Reload
	.loc	23 1653 68              ## /Applications/Xcode.app/Contents/Developer/Toolchains/XcodeDefault.xctoolchain/usr/bin/../include/c++/v1/vector:1653:68
	movq	8(%rdx), %rdi
	movq	%rax, -48(%rbp)         ## 8-byte Spill
	.loc	23 1653 35 is_stmt 0    ## /Applications/Xcode.app/Contents/Developer/Toolchains/XcodeDefault.xctoolchain/usr/bin/../include/c++/v1/vector:1653:35
	callq	__ZNSt3__1L16__to_raw_pointerINS_10shared_ptrI1AEEEEPT_S5_
	.loc	23 1654 50 is_stmt 1    ## /Applications/Xcode.app/Contents/Developer/Toolchains/XcodeDefault.xctoolchain/usr/bin/../include/c++/v1/vector:1654:50
	movq	-16(%rbp), %rdi
	movq	%rax, -56(%rbp)         ## 8-byte Spill
	.loc	23 1654 35 is_stmt 0    ## /Applications/Xcode.app/Contents/Developer/Toolchains/XcodeDefault.xctoolchain/usr/bin/../include/c++/v1/vector:1654:35
	callq	__ZNSt3__1L4moveIRNS_10shared_ptrI1AEEEEONS_16remove_referenceIT_E4typeEOS6_
	movq	-48(%rbp), %rdi         ## 8-byte Reload
	movq	-56(%rbp), %rsi         ## 8-byte Reload
	.loc	23 1652 9 is_stmt 1     ## /Applications/Xcode.app/Contents/Developer/Toolchains/XcodeDefault.xctoolchain/usr/bin/../include/c++/v1/vector:1652:9
	movq	%rax, %rdx
	callq	__ZNSt3__116allocator_traitsINS_9allocatorINS_10shared_ptrI1AEEEEE9constructIS4_JS4_EEEvRS5_PT_DpOT0_
	.loc	23 1655 21              ## /Applications/Xcode.app/Contents/Developer/Toolchains/XcodeDefault.xctoolchain/usr/bin/../include/c++/v1/vector:1655:21
	leaq	-24(%rbp), %rdi
	callq	__ZNSt3__16vectorINS_10shared_ptrI1AEENS_9allocatorIS3_EEE24__RAII_IncreaseAnnotator6__doneEv
	movq	-40(%rbp), %rax         ## 8-byte Reload
	.loc	23 1656 9               ## /Applications/Xcode.app/Contents/Developer/Toolchains/XcodeDefault.xctoolchain/usr/bin/../include/c++/v1/vector:1656:9
	movq	8(%rax), %rdx
	addq	$16, %rdx
	movq	%rdx, 8(%rax)
	.loc	23 1657 5               ## /Applications/Xcode.app/Contents/Developer/Toolchains/XcodeDefault.xctoolchain/usr/bin/../include/c++/v1/vector:1657:5
	jmp	LBB2_3
Ltmp52:
LBB2_2:
	.loc	23 1659 46              ## /Applications/Xcode.app/Contents/Developer/Toolchains/XcodeDefault.xctoolchain/usr/bin/../include/c++/v1/vector:1659:46
	movq	-16(%rbp), %rdi
	.loc	23 1659 31 is_stmt 0    ## /Applications/Xcode.app/Contents/Developer/Toolchains/XcodeDefault.xctoolchain/usr/bin/../include/c++/v1/vector:1659:31
	callq	__ZNSt3__1L4moveIRNS_10shared_ptrI1AEEEEONS_16remove_referenceIT_E4typeEOS6_
	movq	-40(%rbp), %rdi         ## 8-byte Reload
	.loc	23 1659 9               ## /Applications/Xcode.app/Contents/Developer/Toolchains/XcodeDefault.xctoolchain/usr/bin/../include/c++/v1/vector:1659:9
	movq	%rax, %rsi
	callq	__ZNSt3__16vectorINS_10shared_ptrI1AEENS_9allocatorIS3_EEE21__push_back_slow_pathIS3_EEvOT_
Ltmp53:
LBB2_3:
	.loc	23 1660 1 is_stmt 1     ## /Applications/Xcode.app/Contents/Developer/Toolchains/XcodeDefault.xctoolchain/usr/bin/../include/c++/v1/vector:1660:1
	addq	$64, %rsp
	popq	%rbp
	retq
Ltmp54:
Lfunc_end2:
	.cfi_endproc
                                        ## -- End function
	.globl	__ZN1AC1Ev              ## -- Begin function _ZN1AC1Ev
	.weak_def_can_be_hidden	__ZN1AC1Ev
	.p2align	4, 0x90
__ZN1AC1Ev:                             ## @_ZN1AC1Ev
Lfunc_begin3:
	.loc	17 10 0                 ## shared_and_weak_ptr.cpp:10:0
	.cfi_startproc
## %bb.0:
	pushq	%rbp
	.cfi_def_cfa_offset 16
	.cfi_offset %rbp, -16
	movq	%rsp, %rbp
	.cfi_def_cfa_register %rbp
	subq	$16, %rsp
	movq	%rdi, -8(%rbp)
	movq	-8(%rbp), %rdi
Ltmp55:
	.loc	17 10 13 prologue_end   ## shared_and_weak_ptr.cpp:10:13
	callq	__ZN1AC2Ev
	.loc	17 13 9                 ## shared_and_weak_ptr.cpp:13:9
	addq	$16, %rsp
	popq	%rbp
	retq
Ltmp56:
Lfunc_end3:
	.cfi_endproc
                                        ## -- End function
	.globl	__ZNSt3__110shared_ptrI1AEC1IS1_EEPT_NS_9enable_ifIXsr14is_convertibleIS5_PS1_EE5valueENS2_5__natEE4typeE ## -- Begin function _ZNSt3__110shared_ptrI1AEC1IS1_EEPT_NS_9enable_ifIXsr14is_convertibleIS5_PS1_EE5valueENS2_5__natEE4typeE
	.weak_def_can_be_hidden	__ZNSt3__110shared_ptrI1AEC1IS1_EEPT_NS_9enable_ifIXsr14is_convertibleIS5_PS1_EE5valueENS2_5__natEE4typeE
	.p2align	4, 0x90
__ZNSt3__110shared_ptrI1AEC1IS1_EEPT_NS_9enable_ifIXsr14is_convertibleIS5_PS1_EE5valueENS2_5__natEE4typeE: ## @_ZNSt3__110shared_ptrI1AEC1IS1_EEPT_NS_9enable_ifIXsr14is_convertibleIS5_PS1_EE5valueENS2_5__natEE4typeE
Lfunc_begin4:
	.loc	7 4066 0                ## /Applications/Xcode.app/Contents/Developer/Toolchains/XcodeDefault.xctoolchain/usr/bin/../include/c++/v1/memory:4066:0
	.cfi_startproc
## %bb.0:
	pushq	%rbp
	.cfi_def_cfa_offset 16
	.cfi_offset %rbp, -16
	movq	%rsp, %rbp
	.cfi_def_cfa_register %rbp
	subq	$32, %rsp
	movl	%edx, -8(%rbp)
	movq	%rdi, -16(%rbp)
	movq	%rsi, -24(%rbp)
	movq	-16(%rbp), %rdi
Ltmp57:
	.loc	7 4066 1 prologue_end   ## /Applications/Xcode.app/Contents/Developer/Toolchains/XcodeDefault.xctoolchain/usr/bin/../include/c++/v1/memory:4066:1
	movq	-24(%rbp), %rsi
	movl	-8(%rbp), %edx
	callq	__ZNSt3__110shared_ptrI1AEC2IS1_EEPT_NS_9enable_ifIXsr14is_convertibleIS5_PS1_EE5valueENS2_5__natEE4typeE
	.loc	7 4073 1                ## /Applications/Xcode.app/Contents/Developer/Toolchains/XcodeDefault.xctoolchain/usr/bin/../include/c++/v1/memory:4073:1
	addq	$32, %rsp
	popq	%rbp
	retq
Ltmp58:
Lfunc_end4:
	.cfi_endproc
                                        ## -- End function
	.globl	__ZNSt3__110shared_ptrI1AED1Ev ## -- Begin function _ZNSt3__110shared_ptrI1AED1Ev
	.weak_def_can_be_hidden	__ZNSt3__110shared_ptrI1AED1Ev
	.p2align	4, 0x90
__ZNSt3__110shared_ptrI1AED1Ev:         ## @_ZNSt3__110shared_ptrI1AED1Ev
Lfunc_begin5:
	.loc	7 4520 0                ## /Applications/Xcode.app/Contents/Developer/Toolchains/XcodeDefault.xctoolchain/usr/bin/../include/c++/v1/memory:4520:0
	.cfi_startproc
## %bb.0:
	pushq	%rbp
	.cfi_def_cfa_offset 16
	.cfi_offset %rbp, -16
	movq	%rsp, %rbp
	.cfi_def_cfa_register %rbp
	subq	$16, %rsp
	movq	%rdi, -8(%rbp)
	movq	-8(%rbp), %rdi
Ltmp59:
	.loc	7 4520 1 prologue_end   ## /Applications/Xcode.app/Contents/Developer/Toolchains/XcodeDefault.xctoolchain/usr/bin/../include/c++/v1/memory:4520:1
	callq	__ZNSt3__110shared_ptrI1AED2Ev
	.loc	7 4523 1                ## /Applications/Xcode.app/Contents/Developer/Toolchains/XcodeDefault.xctoolchain/usr/bin/../include/c++/v1/memory:4523:1
	addq	$16, %rsp
	popq	%rbp
	retq
Ltmp60:
Lfunc_end5:
	.cfi_endproc
                                        ## -- End function
	.p2align	4, 0x90         ## -- Begin function _ZNSt3__16vectorINS_10shared_ptrI1AEENS_9allocatorIS3_EEEixEm
__ZNSt3__16vectorINS_10shared_ptrI1AEENS_9allocatorIS3_EEEixEm: ## @_ZNSt3__16vectorINS_10shared_ptrI1AEENS_9allocatorIS3_EEEixEm
Lfunc_begin6:
	.loc	23 1542 0               ## /Applications/Xcode.app/Contents/Developer/Toolchains/XcodeDefault.xctoolchain/usr/bin/../include/c++/v1/vector:1542:0
	.cfi_startproc
## %bb.0:
	pushq	%rbp
	.cfi_def_cfa_offset 16
	.cfi_offset %rbp, -16
	movq	%rsp, %rbp
	.cfi_def_cfa_register %rbp
	movq	%rdi, -8(%rbp)
	movq	%rsi, -16(%rbp)
	movq	-8(%rbp), %rsi
Ltmp61:
	.loc	23 1544 18 prologue_end ## /Applications/Xcode.app/Contents/Developer/Toolchains/XcodeDefault.xctoolchain/usr/bin/../include/c++/v1/vector:1544:18
	movq	(%rsi), %rsi
	.loc	23 1544 27 is_stmt 0    ## /Applications/Xcode.app/Contents/Developer/Toolchains/XcodeDefault.xctoolchain/usr/bin/../include/c++/v1/vector:1544:27
	movq	-16(%rbp), %rdi
	.loc	23 1544 12              ## /Applications/Xcode.app/Contents/Developer/Toolchains/XcodeDefault.xctoolchain/usr/bin/../include/c++/v1/vector:1544:12
	shlq	$4, %rdi
	addq	%rdi, %rsi
	.loc	23 1544 5               ## /Applications/Xcode.app/Contents/Developer/Toolchains/XcodeDefault.xctoolchain/usr/bin/../include/c++/v1/vector:1544:5
	movq	%rsi, %rax
	popq	%rbp
	retq
Ltmp62:
Lfunc_end6:
	.cfi_endproc
                                        ## -- End function
	.p2align	4, 0x90         ## -- Begin function _ZNSt3__110shared_ptrI1AEC1ERKS2_
__ZNSt3__110shared_ptrI1AEC1ERKS2_:     ## @_ZNSt3__110shared_ptrI1AEC1ERKS2_
Lfunc_begin7:
	.loc	7 4193 0 is_stmt 1      ## /Applications/Xcode.app/Contents/Developer/Toolchains/XcodeDefault.xctoolchain/usr/bin/../include/c++/v1/memory:4193:0
	.cfi_startproc
## %bb.0:
	pushq	%rbp
	.cfi_def_cfa_offset 16
	.cfi_offset %rbp, -16
	movq	%rsp, %rbp
	.cfi_def_cfa_register %rbp
	subq	$16, %rsp
	movq	%rdi, -8(%rbp)
	movq	%rsi, -16(%rbp)
	movq	-8(%rbp), %rdi
Ltmp63:
	.loc	7 4193 1 prologue_end   ## /Applications/Xcode.app/Contents/Developer/Toolchains/XcodeDefault.xctoolchain/usr/bin/../include/c++/v1/memory:4193:1
	movq	-16(%rbp), %rsi
	callq	__ZNSt3__110shared_ptrI1AEC2ERKS2_
	.loc	7 4196 1                ## /Applications/Xcode.app/Contents/Developer/Toolchains/XcodeDefault.xctoolchain/usr/bin/../include/c++/v1/memory:4196:1
	addq	$16, %rsp
	popq	%rbp
	retq
Ltmp64:
Lfunc_end7:
	.cfi_endproc
                                        ## -- End function
	.globl	__ZNSt3__1lsINS_11char_traitsIcEEEERNS_13basic_ostreamIcT_EES6_PKc ## -- Begin function _ZNSt3__1lsINS_11char_traitsIcEEEERNS_13basic_ostreamIcT_EES6_PKc
	.weak_definition	__ZNSt3__1lsINS_11char_traitsIcEEEERNS_13basic_ostreamIcT_EES6_PKc
	.p2align	4, 0x90
__ZNSt3__1lsINS_11char_traitsIcEEEERNS_13basic_ostreamIcT_EES6_PKc: ## @_ZNSt3__1lsINS_11char_traitsIcEEEERNS_13basic_ostreamIcT_EES6_PKc
Lfunc_begin8:
	.loc	22 864 0                ## /Applications/Xcode.app/Contents/Developer/Toolchains/XcodeDefault.xctoolchain/usr/bin/../include/c++/v1/ostream:864:0
	.cfi_startproc
## %bb.0:
	pushq	%rbp
	.cfi_def_cfa_offset 16
	.cfi_offset %rbp, -16
	movq	%rsp, %rbp
	.cfi_def_cfa_register %rbp
	subq	$32, %rsp
	movq	%rdi, -8(%rbp)
	movq	%rsi, -16(%rbp)
Ltmp65:
	.loc	22 865 47 prologue_end  ## /Applications/Xcode.app/Contents/Developer/Toolchains/XcodeDefault.xctoolchain/usr/bin/../include/c++/v1/ostream:865:47
	movq	-8(%rbp), %rdi
	.loc	22 865 53 is_stmt 0     ## /Applications/Xcode.app/Contents/Developer/Toolchains/XcodeDefault.xctoolchain/usr/bin/../include/c++/v1/ostream:865:53
	movq	-16(%rbp), %rsi
	.loc	22 865 76               ## /Applications/Xcode.app/Contents/Developer/Toolchains/XcodeDefault.xctoolchain/usr/bin/../include/c++/v1/ostream:865:76
	movq	-16(%rbp), %rax
	movq	%rdi, -24(%rbp)         ## 8-byte Spill
	.loc	22 865 60               ## /Applications/Xcode.app/Contents/Developer/Toolchains/XcodeDefault.xctoolchain/usr/bin/../include/c++/v1/ostream:865:60
	movq	%rax, %rdi
	movq	%rsi, -32(%rbp)         ## 8-byte Spill
	callq	__ZNSt3__111char_traitsIcE6lengthEPKc
	movq	-24(%rbp), %rdi         ## 8-byte Reload
	movq	-32(%rbp), %rsi         ## 8-byte Reload
	.loc	22 865 12               ## /Applications/Xcode.app/Contents/Developer/Toolchains/XcodeDefault.xctoolchain/usr/bin/../include/c++/v1/ostream:865:12
	movq	%rax, %rdx
	callq	__ZNSt3__124__put_character_sequenceIcNS_11char_traitsIcEEEERNS_13basic_ostreamIT_T0_EES7_PKS4_m
	.loc	22 865 5                ## /Applications/Xcode.app/Contents/Developer/Toolchains/XcodeDefault.xctoolchain/usr/bin/../include/c++/v1/ostream:865:5
	addq	$32, %rsp
	popq	%rbp
	retq
Ltmp66:
Lfunc_end8:
	.cfi_endproc
                                        ## -- End function
	.p2align	4, 0x90         ## -- Begin function _ZNSt3__113basic_ostreamIcNS_11char_traitsIcEEElsEPFRS3_S4_E
__ZNSt3__113basic_ostreamIcNS_11char_traitsIcEEElsEPFRS3_S4_E: ## @_ZNSt3__113basic_ostreamIcNS_11char_traitsIcEEElsEPFRS3_S4_E
Lfunc_begin9:
	.loc	22 196 0 is_stmt 1      ## /Applications/Xcode.app/Contents/Developer/Toolchains/XcodeDefault.xctoolchain/usr/bin/../include/c++/v1/ostream:196:0
	.cfi_startproc
## %bb.0:
	pushq	%rbp
	.cfi_def_cfa_offset 16
	.cfi_offset %rbp, -16
	movq	%rsp, %rbp
	.cfi_def_cfa_register %rbp
	subq	$16, %rsp
	movq	%rdi, -8(%rbp)
	movq	%rsi, -16(%rbp)
	movq	-8(%rbp), %rdi
Ltmp67:
	.loc	22 196 14 prologue_end  ## /Applications/Xcode.app/Contents/Developer/Toolchains/XcodeDefault.xctoolchain/usr/bin/../include/c++/v1/ostream:196:14
	callq	*-16(%rbp)
	.loc	22 196 7 is_stmt 0      ## /Applications/Xcode.app/Contents/Developer/Toolchains/XcodeDefault.xctoolchain/usr/bin/../include/c++/v1/ostream:196:7
	addq	$16, %rsp
	popq	%rbp
	retq
Ltmp68:
Lfunc_end9:
	.cfi_endproc
                                        ## -- End function
	.p2align	4, 0x90         ## -- Begin function _ZNSt3__1L4endlIcNS_11char_traitsIcEEEERNS_13basic_ostreamIT_T0_EES7_
__ZNSt3__1L4endlIcNS_11char_traitsIcEEEERNS_13basic_ostreamIT_T0_EES7_: ## @_ZNSt3__1L4endlIcNS_11char_traitsIcEEEERNS_13basic_ostreamIT_T0_EES7_
Lfunc_begin10:
	.loc	22 1001 0 is_stmt 1     ## /Applications/Xcode.app/Contents/Developer/Toolchains/XcodeDefault.xctoolchain/usr/bin/../include/c++/v1/ostream:1001:0
	.cfi_startproc
## %bb.0:
	pushq	%rbp
	.cfi_def_cfa_offset 16
	.cfi_offset %rbp, -16
	movq	%rsp, %rbp
	.cfi_def_cfa_register %rbp
	subq	$32, %rsp
	movq	%rdi, -8(%rbp)
Ltmp69:
	.loc	22 1002 5 prologue_end  ## /Applications/Xcode.app/Contents/Developer/Toolchains/XcodeDefault.xctoolchain/usr/bin/../include/c++/v1/ostream:1002:5
	movq	-8(%rbp), %rdi
	.loc	22 1002 14 is_stmt 0    ## /Applications/Xcode.app/Contents/Developer/Toolchains/XcodeDefault.xctoolchain/usr/bin/../include/c++/v1/ostream:1002:14
	movq	-8(%rbp), %rax
	movq	(%rax), %rcx
	movq	-24(%rcx), %rcx
	addq	%rcx, %rax
	movq	%rdi, -16(%rbp)         ## 8-byte Spill
	.loc	22 1002 19              ## /Applications/Xcode.app/Contents/Developer/Toolchains/XcodeDefault.xctoolchain/usr/bin/../include/c++/v1/ostream:1002:19
	movq	%rax, %rdi
	movl	$10, %esi
	callq	__ZNKSt3__19basic_iosIcNS_11char_traitsIcEEE5widenEc
	movq	-16(%rbp), %rdi         ## 8-byte Reload
	.loc	22 1002 10              ## /Applications/Xcode.app/Contents/Developer/Toolchains/XcodeDefault.xctoolchain/usr/bin/../include/c++/v1/ostream:1002:10
	movsbl	%al, %esi
	callq	__ZNSt3__113basic_ostreamIcNS_11char_traitsIcEEE3putEc
	.loc	22 1003 5 is_stmt 1     ## /Applications/Xcode.app/Contents/Developer/Toolchains/XcodeDefault.xctoolchain/usr/bin/../include/c++/v1/ostream:1003:5
	movq	-8(%rbp), %rdi
	movq	%rax, -24(%rbp)         ## 8-byte Spill
	.loc	22 1003 10 is_stmt 0    ## /Applications/Xcode.app/Contents/Developer/Toolchains/XcodeDefault.xctoolchain/usr/bin/../include/c++/v1/ostream:1003:10
	callq	__ZNSt3__113basic_ostreamIcNS_11char_traitsIcEEE5flushEv
	.loc	22 1004 12 is_stmt 1    ## /Applications/Xcode.app/Contents/Developer/Toolchains/XcodeDefault.xctoolchain/usr/bin/../include/c++/v1/ostream:1004:12
	movq	-8(%rbp), %rcx
	movq	%rax, -32(%rbp)         ## 8-byte Spill
	.loc	22 1004 5 is_stmt 0     ## /Applications/Xcode.app/Contents/Developer/Toolchains/XcodeDefault.xctoolchain/usr/bin/../include/c++/v1/ostream:1004:5
	movq	%rcx, %rax
	addq	$32, %rsp
	popq	%rbp
	retq
Ltmp70:
Lfunc_end10:
	.cfi_endproc
                                        ## -- End function
	.p2align	4, 0x90         ## -- Begin function _ZNSt3__16vectorINS_10shared_ptrI1AEENS_9allocatorIS3_EEE5eraseENS_11__wrap_iterIPKS3_EE
__ZNSt3__16vectorINS_10shared_ptrI1AEENS_9allocatorIS3_EEE5eraseENS_11__wrap_iterIPKS3_EE: ## @_ZNSt3__16vectorINS_10shared_ptrI1AEENS_9allocatorIS3_EEE5eraseENS_11__wrap_iterIPKS3_EE
Lfunc_begin11:
	.loc	23 1716 0 is_stmt 1     ## /Applications/Xcode.app/Contents/Developer/Toolchains/XcodeDefault.xctoolchain/usr/bin/../include/c++/v1/vector:1716:0
	.cfi_startproc
## %bb.0:
	pushq	%rbp
	.cfi_def_cfa_offset 16
	.cfi_offset %rbp, -16
	movq	%rsp, %rbp
	.cfi_def_cfa_register %rbp
	subq	$64, %rsp
	movq	%rsi, -16(%rbp)
	movq	%rdi, -24(%rbp)
	movq	-24(%rbp), %rsi
Ltmp71:
	.loc	23 1724 41 prologue_end ## /Applications/Xcode.app/Contents/Developer/Toolchains/XcodeDefault.xctoolchain/usr/bin/../include/c++/v1/vector:1724:41
	movq	%rsi, %rdi
	movq	%rsi, -56(%rbp)         ## 8-byte Spill
	callq	__ZNKSt3__16vectorINS_10shared_ptrI1AEENS_9allocatorIS3_EEE6cbeginEv
	movq	%rax, -40(%rbp)
	.loc	23 1724 39 is_stmt 0    ## /Applications/Xcode.app/Contents/Developer/Toolchains/XcodeDefault.xctoolchain/usr/bin/../include/c++/v1/vector:1724:39
	leaq	-16(%rbp), %rdi
	leaq	-40(%rbp), %rsi
	callq	__ZNSt3__1miIPKNS_10shared_ptrI1AEES5_EEDTmicldtfp_4baseEcldtfp0_4baseEERKNS_11__wrap_iterIT_EERKNS7_IT0_EE
	.loc	23 1724 21              ## /Applications/Xcode.app/Contents/Developer/Toolchains/XcodeDefault.xctoolchain/usr/bin/../include/c++/v1/vector:1724:21
	movq	%rax, -32(%rbp)
	movq	-56(%rbp), %rax         ## 8-byte Reload
	.loc	23 1725 25 is_stmt 1    ## /Applications/Xcode.app/Contents/Developer/Toolchains/XcodeDefault.xctoolchain/usr/bin/../include/c++/v1/vector:1725:25
	movq	(%rax), %rsi
	.loc	23 1725 36 is_stmt 0    ## /Applications/Xcode.app/Contents/Developer/Toolchains/XcodeDefault.xctoolchain/usr/bin/../include/c++/v1/vector:1725:36
	movq	-32(%rbp), %rdi
	.loc	23 1725 34              ## /Applications/Xcode.app/Contents/Developer/Toolchains/XcodeDefault.xctoolchain/usr/bin/../include/c++/v1/vector:1725:34
	shlq	$4, %rdi
	addq	%rdi, %rsi
	.loc	23 1725 13              ## /Applications/Xcode.app/Contents/Developer/Toolchains/XcodeDefault.xctoolchain/usr/bin/../include/c++/v1/vector:1725:13
	movq	%rsi, -48(%rbp)
	.loc	23 1726 44 is_stmt 1    ## /Applications/Xcode.app/Contents/Developer/Toolchains/XcodeDefault.xctoolchain/usr/bin/../include/c++/v1/vector:1726:44
	movq	-48(%rbp), %rsi
	.loc	23 1726 48 is_stmt 0    ## /Applications/Xcode.app/Contents/Developer/Toolchains/XcodeDefault.xctoolchain/usr/bin/../include/c++/v1/vector:1726:48
	addq	$16, %rsi
	.loc	23 1726 59              ## /Applications/Xcode.app/Contents/Developer/Toolchains/XcodeDefault.xctoolchain/usr/bin/../include/c++/v1/vector:1726:59
	movq	8(%rax), %rdi
	.loc	23 1726 67              ## /Applications/Xcode.app/Contents/Developer/Toolchains/XcodeDefault.xctoolchain/usr/bin/../include/c++/v1/vector:1726:67
	movq	-48(%rbp), %rdx
	movq	%rdi, -64(%rbp)         ## 8-byte Spill
	.loc	23 1726 29              ## /Applications/Xcode.app/Contents/Developer/Toolchains/XcodeDefault.xctoolchain/usr/bin/../include/c++/v1/vector:1726:29
	movq	%rsi, %rdi
	movq	-64(%rbp), %rsi         ## 8-byte Reload
	callq	__ZNSt3__1L4moveIPNS_10shared_ptrI1AEES4_EET0_T_S6_S5_
	movq	-56(%rbp), %rdi         ## 8-byte Reload
	.loc	23 1726 11              ## /Applications/Xcode.app/Contents/Developer/Toolchains/XcodeDefault.xctoolchain/usr/bin/../include/c++/v1/vector:1726:11
	movq	%rax, %rsi
	callq	__ZNSt3__16vectorINS_10shared_ptrI1AEENS_9allocatorIS3_EEE17__destruct_at_endEPS3_
	.loc	23 1727 39 is_stmt 1    ## /Applications/Xcode.app/Contents/Developer/Toolchains/XcodeDefault.xctoolchain/usr/bin/../include/c++/v1/vector:1727:39
	movq	-48(%rbp), %rax
	.loc	23 1727 42 is_stmt 0    ## /Applications/Xcode.app/Contents/Developer/Toolchains/XcodeDefault.xctoolchain/usr/bin/../include/c++/v1/vector:1727:42
	addq	$-16, %rax
	movq	-56(%rbp), %rdi         ## 8-byte Reload
	.loc	23 1727 11              ## /Applications/Xcode.app/Contents/Developer/Toolchains/XcodeDefault.xctoolchain/usr/bin/../include/c++/v1/vector:1727:11
	movq	%rax, %rsi
	callq	__ZNSt3__16vectorINS_10shared_ptrI1AEENS_9allocatorIS3_EEE27__invalidate_iterators_pastEPS3_
	.loc	23 1728 32 is_stmt 1    ## /Applications/Xcode.app/Contents/Developer/Toolchains/XcodeDefault.xctoolchain/usr/bin/../include/c++/v1/vector:1728:32
	movq	-48(%rbp), %rsi
	movq	-56(%rbp), %rdi         ## 8-byte Reload
	.loc	23 1728 20 is_stmt 0    ## /Applications/Xcode.app/Contents/Developer/Toolchains/XcodeDefault.xctoolchain/usr/bin/../include/c++/v1/vector:1728:20
	callq	__ZNSt3__16vectorINS_10shared_ptrI1AEENS_9allocatorIS3_EEE11__make_iterEPS3_
	movq	%rax, -8(%rbp)
	.loc	23 1729 5 is_stmt 1     ## /Applications/Xcode.app/Contents/Developer/Toolchains/XcodeDefault.xctoolchain/usr/bin/../include/c++/v1/vector:1729:5
	movq	-8(%rbp), %rax
	addq	$64, %rsp
	popq	%rbp
	retq
Ltmp72:
Lfunc_end11:
	.cfi_endproc
                                        ## -- End function
	.p2align	4, 0x90         ## -- Begin function _ZNSt3__16vectorINS_10shared_ptrI1AEENS_9allocatorIS3_EEE5beginEv
__ZNSt3__16vectorINS_10shared_ptrI1AEENS_9allocatorIS3_EEE5beginEv: ## @_ZNSt3__16vectorINS_10shared_ptrI1AEENS_9allocatorIS3_EEE5beginEv
Lfunc_begin12:
	.loc	23 1510 0               ## /Applications/Xcode.app/Contents/Developer/Toolchains/XcodeDefault.xctoolchain/usr/bin/../include/c++/v1/vector:1510:0
	.cfi_startproc
## %bb.0:
	pushq	%rbp
	.cfi_def_cfa_offset 16
	.cfi_offset %rbp, -16
	movq	%rsp, %rbp
	.cfi_def_cfa_register %rbp
	subq	$16, %rsp
	movq	%rdi, -16(%rbp)
	movq	-16(%rbp), %rdi
Ltmp73:
	.loc	23 1511 30 prologue_end ## /Applications/Xcode.app/Contents/Developer/Toolchains/XcodeDefault.xctoolchain/usr/bin/../include/c++/v1/vector:1511:30
	movq	(%rdi), %rsi
	.loc	23 1511 12 is_stmt 0    ## /Applications/Xcode.app/Contents/Developer/Toolchains/XcodeDefault.xctoolchain/usr/bin/../include/c++/v1/vector:1511:12
	callq	__ZNSt3__16vectorINS_10shared_ptrI1AEENS_9allocatorIS3_EEE11__make_iterEPS3_
	movq	%rax, -8(%rbp)
	.loc	23 1511 5               ## /Applications/Xcode.app/Contents/Developer/Toolchains/XcodeDefault.xctoolchain/usr/bin/../include/c++/v1/vector:1511:5
	movq	-8(%rbp), %rax
	addq	$16, %rsp
	popq	%rbp
	retq
Ltmp74:
Lfunc_end12:
	.cfi_endproc
                                        ## -- End function
	.p2align	4, 0x90         ## -- Begin function _ZNSt3__111__wrap_iterIPKNS_10shared_ptrI1AEEEC1IPS3_EERKNS0_IT_EEPNS_9enable_ifIXsr14is_convertibleIS9_S5_EE5valueEvE4typeE
__ZNSt3__111__wrap_iterIPKNS_10shared_ptrI1AEEEC1IPS3_EERKNS0_IT_EEPNS_9enable_ifIXsr14is_convertibleIS9_S5_EE5valueEvE4typeE: ## @_ZNSt3__111__wrap_iterIPKNS_10shared_ptrI1AEEEC1IPS3_EERKNS0_IT_EEPNS_9enable_ifIXsr14is_convertibleIS9_S5_EE5valueEvE4typeE
Lfunc_begin13:
	.loc	20 1340 0 is_stmt 1     ## /Applications/Xcode.app/Contents/Developer/Toolchains/XcodeDefault.xctoolchain/usr/bin/../include/c++/v1/iterator:1340:0
	.cfi_startproc
## %bb.0:
	pushq	%rbp
	.cfi_def_cfa_offset 16
	.cfi_offset %rbp, -16
	movq	%rsp, %rbp
	.cfi_def_cfa_register %rbp
	subq	$32, %rsp
	movq	%rdi, -8(%rbp)
	movq	%rsi, -16(%rbp)
	movq	%rdx, -24(%rbp)
	movq	-8(%rbp), %rdi
Ltmp75:
	.loc	20 1340 5 prologue_end  ## /Applications/Xcode.app/Contents/Developer/Toolchains/XcodeDefault.xctoolchain/usr/bin/../include/c++/v1/iterator:1340:5
	movq	-16(%rbp), %rsi
	movq	-24(%rbp), %rdx
	callq	__ZNSt3__111__wrap_iterIPKNS_10shared_ptrI1AEEEC2IPS3_EERKNS0_IT_EEPNS_9enable_ifIXsr14is_convertibleIS9_S5_EE5valueEvE4typeE
	.loc	20 1344 5               ## /Applications/Xcode.app/Contents/Developer/Toolchains/XcodeDefault.xctoolchain/usr/bin/../include/c++/v1/iterator:1344:5
	addq	$32, %rsp
	popq	%rbp
	retq
Ltmp76:
Lfunc_end13:
	.cfi_endproc
                                        ## -- End function
	.p2align	4, 0x90         ## -- Begin function _ZNSt3__16vectorINS_10shared_ptrI1AEENS_9allocatorIS3_EEED1Ev
__ZNSt3__16vectorINS_10shared_ptrI1AEENS_9allocatorIS3_EEED1Ev: ## @_ZNSt3__16vectorINS_10shared_ptrI1AEENS_9allocatorIS3_EEED1Ev
Lfunc_begin14:
	.loc	23 551 0                ## /Applications/Xcode.app/Contents/Developer/Toolchains/XcodeDefault.xctoolchain/usr/bin/../include/c++/v1/vector:551:0
	.cfi_startproc
## %bb.0:
	pushq	%rbp
	.cfi_def_cfa_offset 16
	.cfi_offset %rbp, -16
	movq	%rsp, %rbp
	.cfi_def_cfa_register %rbp
	subq	$16, %rsp
	movq	%rdi, -8(%rbp)
	movq	-8(%rbp), %rdi
Ltmp77:
	.loc	23 551 5 prologue_end   ## /Applications/Xcode.app/Contents/Developer/Toolchains/XcodeDefault.xctoolchain/usr/bin/../include/c++/v1/vector:551:5
	callq	__ZNSt3__16vectorINS_10shared_ptrI1AEENS_9allocatorIS3_EEED2Ev
	.loc	23 556 5                ## /Applications/Xcode.app/Contents/Developer/Toolchains/XcodeDefault.xctoolchain/usr/bin/../include/c++/v1/vector:556:5
	addq	$16, %rsp
	popq	%rbp
	retq
Ltmp78:
Lfunc_end14:
	.cfi_endproc
                                        ## -- End function
	.globl	__ZN1AC2Ev              ## -- Begin function _ZN1AC2Ev
	.weak_def_can_be_hidden	__ZN1AC2Ev
	.p2align	4, 0x90
__ZN1AC2Ev:                             ## @_ZN1AC2Ev
Lfunc_begin15:
	.loc	17 10 0                 ## shared_and_weak_ptr.cpp:10:0
	.cfi_startproc
## %bb.0:
	pushq	%rbp
	.cfi_def_cfa_offset 16
	.cfi_offset %rbp, -16
	movq	%rsp, %rbp
	.cfi_def_cfa_register %rbp
	subq	$32, %rsp
	movq	%rdi, -8(%rbp)
	movq	-8(%rbp), %rdi
Ltmp79:
	.loc	17 11 20 prologue_end   ## shared_and_weak_ptr.cpp:11:20
	movl	$400, %eax              ## imm = 0x190
	movq	%rdi, -16(%rbp)         ## 8-byte Spill
	movq	%rax, %rdi
	callq	__Znam
	movq	__ZNSt3__14coutE@GOTPCREL(%rip), %rdi
	movq	-16(%rbp), %rcx         ## 8-byte Reload
	.loc	17 11 18 is_stmt 0      ## shared_and_weak_ptr.cpp:11:18
	movq	%rax, (%rcx)
	.loc	17 12 23 is_stmt 1      ## shared_and_weak_ptr.cpp:12:23
	leaq	L_.str.4(%rip), %rsi
	callq	__ZNSt3__1lsINS_11char_traitsIcEEEERNS_13basic_ostreamIcT_EES6_PKc
	.loc	17 12 45 is_stmt 0      ## shared_and_weak_ptr.cpp:12:45
	movq	%rax, %rdi
	leaq	__ZNSt3__1L4endlIcNS_11char_traitsIcEEEERNS_13basic_ostreamIT_T0_EES7_(%rip), %rsi
	callq	__ZNSt3__113basic_ostreamIcNS_11char_traitsIcEEElsEPFRS3_S4_E
	movq	%rax, -24(%rbp)         ## 8-byte Spill
Ltmp80:
	.loc	17 13 9 is_stmt 1       ## shared_and_weak_ptr.cpp:13:9
	addq	$32, %rsp
	popq	%rbp
	retq
Ltmp81:
Lfunc_end15:
	.cfi_endproc
                                        ## -- End function
	.p2align	4, 0x90         ## -- Begin function _ZNSt3__111__wrap_iterIPKNS_10shared_ptrI1AEEEC2IPS3_EERKNS0_IT_EEPNS_9enable_ifIXsr14is_convertibleIS9_S5_EE5valueEvE4typeE
__ZNSt3__111__wrap_iterIPKNS_10shared_ptrI1AEEEC2IPS3_EERKNS0_IT_EEPNS_9enable_ifIXsr14is_convertibleIS9_S5_EE5valueEvE4typeE: ## @_ZNSt3__111__wrap_iterIPKNS_10shared_ptrI1AEEEC2IPS3_EERKNS0_IT_EEPNS_9enable_ifIXsr14is_convertibleIS9_S5_EE5valueEvE4typeE
Lfunc_begin16:
	.loc	20 1340 0               ## /Applications/Xcode.app/Contents/Developer/Toolchains/XcodeDefault.xctoolchain/usr/bin/../include/c++/v1/iterator:1340:0
	.cfi_startproc
## %bb.0:
	pushq	%rbp
	.cfi_def_cfa_offset 16
	.cfi_offset %rbp, -16
	movq	%rsp, %rbp
	.cfi_def_cfa_register %rbp
	subq	$32, %rsp
	movq	%rdi, -8(%rbp)
	movq	%rsi, -16(%rbp)
	movq	%rdx, -24(%rbp)
	movq	-8(%rbp), %rdx
Ltmp82:
	.loc	20 1339 19 prologue_end ## /Applications/Xcode.app/Contents/Developer/Toolchains/XcodeDefault.xctoolchain/usr/bin/../include/c++/v1/iterator:1339:19
	movq	-16(%rbp), %rdi
	movq	%rdx, -32(%rbp)         ## 8-byte Spill
	.loc	20 1339 23 is_stmt 0    ## /Applications/Xcode.app/Contents/Developer/Toolchains/XcodeDefault.xctoolchain/usr/bin/../include/c++/v1/iterator:1339:23
	callq	__ZNKSt3__111__wrap_iterIPNS_10shared_ptrI1AEEE4baseEv
	movq	-32(%rbp), %rdx         ## 8-byte Reload
	.loc	20 1339 15              ## /Applications/Xcode.app/Contents/Developer/Toolchains/XcodeDefault.xctoolchain/usr/bin/../include/c++/v1/iterator:1339:15
	movq	%rax, (%rdx)
	.loc	20 1344 5 is_stmt 1     ## /Applications/Xcode.app/Contents/Developer/Toolchains/XcodeDefault.xctoolchain/usr/bin/../include/c++/v1/iterator:1344:5
	addq	$32, %rsp
	popq	%rbp
	retq
Ltmp83:
Lfunc_end16:
	.cfi_endproc
                                        ## -- End function
	.p2align	4, 0x90         ## -- Begin function _ZNKSt3__111__wrap_iterIPNS_10shared_ptrI1AEEE4baseEv
__ZNKSt3__111__wrap_iterIPNS_10shared_ptrI1AEEE4baseEv: ## @_ZNKSt3__111__wrap_iterIPNS_10shared_ptrI1AEEE4baseEv
Lfunc_begin17:
	.loc	20 1431 0               ## /Applications/Xcode.app/Contents/Developer/Toolchains/XcodeDefault.xctoolchain/usr/bin/../include/c++/v1/iterator:1431:0
	.cfi_startproc
## %bb.0:
	pushq	%rbp
	.cfi_def_cfa_offset 16
	.cfi_offset %rbp, -16
	movq	%rsp, %rbp
	.cfi_def_cfa_register %rbp
	movq	%rdi, -8(%rbp)
	movq	-8(%rbp), %rdi
Ltmp84:
	.loc	20 1431 137 prologue_end ## /Applications/Xcode.app/Contents/Developer/Toolchains/XcodeDefault.xctoolchain/usr/bin/../include/c++/v1/iterator:1431:137
	movq	(%rdi), %rax
	.loc	20 1431 130 is_stmt 0   ## /Applications/Xcode.app/Contents/Developer/Toolchains/XcodeDefault.xctoolchain/usr/bin/../include/c++/v1/iterator:1431:130
	popq	%rbp
	retq
Ltmp85:
Lfunc_end17:
	.cfi_endproc
                                        ## -- End function
	.globl	__ZNSt3__124__put_character_sequenceIcNS_11char_traitsIcEEEERNS_13basic_ostreamIT_T0_EES7_PKS4_m ## -- Begin function _ZNSt3__124__put_character_sequenceIcNS_11char_traitsIcEEEERNS_13basic_ostreamIT_T0_EES7_PKS4_m
	.weak_definition	__ZNSt3__124__put_character_sequenceIcNS_11char_traitsIcEEEERNS_13basic_ostreamIT_T0_EES7_PKS4_m
	.p2align	4, 0x90
__ZNSt3__124__put_character_sequenceIcNS_11char_traitsIcEEEERNS_13basic_ostreamIT_T0_EES7_PKS4_m: ## @_ZNSt3__124__put_character_sequenceIcNS_11char_traitsIcEEEERNS_13basic_ostreamIT_T0_EES7_PKS4_m
Lfunc_begin18:
	.loc	22 717 0 is_stmt 1      ## /Applications/Xcode.app/Contents/Developer/Toolchains/XcodeDefault.xctoolchain/usr/bin/../include/c++/v1/ostream:717:0
	.cfi_startproc
	.cfi_personality 155, ___gxx_personality_v0
	.cfi_lsda 16, Lexception1
## %bb.0:
	pushq	%rbp
	.cfi_def_cfa_offset 16
	.cfi_offset %rbp, -16
	movq	%rsp, %rbp
	.cfi_def_cfa_register %rbp
	subq	$160, %rsp
	movq	%rdi, -8(%rbp)
	movq	%rsi, -16(%rbp)
	movq	%rdx, -24(%rbp)
Ltmp106:
	.loc	22 722 61 prologue_end  ## /Applications/Xcode.app/Contents/Developer/Toolchains/XcodeDefault.xctoolchain/usr/bin/../include/c++/v1/ostream:722:61
	movq	-8(%rbp), %rsi
Ltmp86:
	leaq	-40(%rbp), %rdi
	.loc	22 722 57 is_stmt 0     ## /Applications/Xcode.app/Contents/Developer/Toolchains/XcodeDefault.xctoolchain/usr/bin/../include/c++/v1/ostream:722:57
	callq	__ZNSt3__113basic_ostreamIcNS_11char_traitsIcEEE6sentryC1ERS3_
Ltmp87:
	jmp	LBB18_1
LBB18_1:
Ltmp89:
	.loc	22 0 57                 ## /Applications/Xcode.app/Contents/Developer/Toolchains/XcodeDefault.xctoolchain/usr/bin/../include/c++/v1/ostream:0:57
	leaq	-40(%rbp), %rdi
Ltmp107:
	.loc	22 723 13 is_stmt 1     ## /Applications/Xcode.app/Contents/Developer/Toolchains/XcodeDefault.xctoolchain/usr/bin/../include/c++/v1/ostream:723:13
	callq	__ZNKSt3__113basic_ostreamIcNS_11char_traitsIcEEE6sentrycvbEv
Ltmp90:
	movb	%al, -73(%rbp)          ## 1-byte Spill
	jmp	LBB18_2
Ltmp108:
LBB18_2:
	.loc	22 0 13 is_stmt 0       ## /Applications/Xcode.app/Contents/Developer/Toolchains/XcodeDefault.xctoolchain/usr/bin/../include/c++/v1/ostream:0:13
	movb	-73(%rbp), %al          ## 1-byte Reload
	.loc	22 723 13               ## /Applications/Xcode.app/Contents/Developer/Toolchains/XcodeDefault.xctoolchain/usr/bin/../include/c++/v1/ostream:723:13
	testb	$1, %al
	jne	LBB18_3
	jmp	LBB18_18
LBB18_3:
Ltmp109:
	.loc	22 726 38 is_stmt 1     ## /Applications/Xcode.app/Contents/Developer/Toolchains/XcodeDefault.xctoolchain/usr/bin/../include/c++/v1/ostream:726:38
	movq	-8(%rbp), %rsi
	leaq	-72(%rbp), %rdi
	.loc	22 726 34 is_stmt 0     ## /Applications/Xcode.app/Contents/Developer/Toolchains/XcodeDefault.xctoolchain/usr/bin/../include/c++/v1/ostream:726:34
	callq	__ZNSt3__119ostreambuf_iteratorIcNS_11char_traitsIcEEEC1ERNS_13basic_ostreamIcS2_EE
	.loc	22 727 34 is_stmt 1     ## /Applications/Xcode.app/Contents/Developer/Toolchains/XcodeDefault.xctoolchain/usr/bin/../include/c++/v1/ostream:727:34
	movq	-16(%rbp), %rsi
	.loc	22 728 35               ## /Applications/Xcode.app/Contents/Developer/Toolchains/XcodeDefault.xctoolchain/usr/bin/../include/c++/v1/ostream:728:35
	movq	-8(%rbp), %rdi
	movq	(%rdi), %rax
	movq	-24(%rax), %rax
	addq	%rax, %rdi
Ltmp91:
	movq	%rsi, -88(%rbp)         ## 8-byte Spill
	.loc	22 728 40 is_stmt 0     ## /Applications/Xcode.app/Contents/Developer/Toolchains/XcodeDefault.xctoolchain/usr/bin/../include/c++/v1/ostream:728:40
	callq	__ZNKSt3__18ios_base5flagsEv
Ltmp92:
	movl	%eax, -92(%rbp)         ## 4-byte Spill
	jmp	LBB18_4
LBB18_4:
	.loc	22 0 40                 ## /Applications/Xcode.app/Contents/Developer/Toolchains/XcodeDefault.xctoolchain/usr/bin/../include/c++/v1/ostream:0:40
	movl	-92(%rbp), %eax         ## 4-byte Reload
	.loc	22 728 48               ## /Applications/Xcode.app/Contents/Developer/Toolchains/XcodeDefault.xctoolchain/usr/bin/../include/c++/v1/ostream:728:48
	andl	$176, %eax
	.loc	22 728 73               ## /Applications/Xcode.app/Contents/Developer/Toolchains/XcodeDefault.xctoolchain/usr/bin/../include/c++/v1/ostream:728:73
	cmpl	$32, %eax
	.loc	22 728 34               ## /Applications/Xcode.app/Contents/Developer/Toolchains/XcodeDefault.xctoolchain/usr/bin/../include/c++/v1/ostream:728:34
	jne	LBB18_6
## %bb.5:
	.loc	22 729 38 is_stmt 1     ## /Applications/Xcode.app/Contents/Developer/Toolchains/XcodeDefault.xctoolchain/usr/bin/../include/c++/v1/ostream:729:38
	movq	-16(%rbp), %rax
	.loc	22 729 44 is_stmt 0     ## /Applications/Xcode.app/Contents/Developer/Toolchains/XcodeDefault.xctoolchain/usr/bin/../include/c++/v1/ostream:729:44
	addq	-24(%rbp), %rax
	movq	%rax, -104(%rbp)        ## 8-byte Spill
	.loc	22 728 34 is_stmt 1     ## /Applications/Xcode.app/Contents/Developer/Toolchains/XcodeDefault.xctoolchain/usr/bin/../include/c++/v1/ostream:728:34
	jmp	LBB18_7
LBB18_6:
	.loc	22 730 38               ## /Applications/Xcode.app/Contents/Developer/Toolchains/XcodeDefault.xctoolchain/usr/bin/../include/c++/v1/ostream:730:38
	movq	-16(%rbp), %rax
	movq	%rax, -104(%rbp)        ## 8-byte Spill
LBB18_7:
	.loc	22 0 38 is_stmt 0       ## /Applications/Xcode.app/Contents/Developer/Toolchains/XcodeDefault.xctoolchain/usr/bin/../include/c++/v1/ostream:0:38
	movq	-104(%rbp), %rax        ## 8-byte Reload
	.loc	22 731 34 is_stmt 1     ## /Applications/Xcode.app/Contents/Developer/Toolchains/XcodeDefault.xctoolchain/usr/bin/../include/c++/v1/ostream:731:34
	movq	-16(%rbp), %rcx
	.loc	22 731 42 is_stmt 0     ## /Applications/Xcode.app/Contents/Developer/Toolchains/XcodeDefault.xctoolchain/usr/bin/../include/c++/v1/ostream:731:42
	movq	-24(%rbp), %rdx
	.loc	22 731 40               ## /Applications/Xcode.app/Contents/Developer/Toolchains/XcodeDefault.xctoolchain/usr/bin/../include/c++/v1/ostream:731:40
	addq	%rdx, %rcx
	.loc	22 732 34 is_stmt 1     ## /Applications/Xcode.app/Contents/Developer/Toolchains/XcodeDefault.xctoolchain/usr/bin/../include/c++/v1/ostream:732:34
	movq	-8(%rbp), %rdx
	movq	(%rdx), %rsi
	movq	-24(%rsi), %rsi
	addq	%rsi, %rdx
Ltmp93:
	.loc	22 733 39               ## /Applications/Xcode.app/Contents/Developer/Toolchains/XcodeDefault.xctoolchain/usr/bin/../include/c++/v1/ostream:733:39
	movq	%rdx, %rdi
	movq	%rax, -112(%rbp)        ## 8-byte Spill
	movq	%rcx, -120(%rbp)        ## 8-byte Spill
	movq	%rdx, -128(%rbp)        ## 8-byte Spill
	callq	__ZNKSt3__19basic_iosIcNS_11char_traitsIcEEE4fillEv
Ltmp94:
	movb	%al, -129(%rbp)         ## 1-byte Spill
	jmp	LBB18_8
LBB18_8:
	.loc	22 726 17               ## /Applications/Xcode.app/Contents/Developer/Toolchains/XcodeDefault.xctoolchain/usr/bin/../include/c++/v1/ostream:726:17
	movq	-72(%rbp), %rdi
Ltmp95:
	movb	-129(%rbp), %al         ## 1-byte Reload
	movsbl	%al, %r9d
	movq	-88(%rbp), %rsi         ## 8-byte Reload
	movq	-112(%rbp), %rdx        ## 8-byte Reload
	movq	-120(%rbp), %rcx        ## 8-byte Reload
	movq	-128(%rbp), %r8         ## 8-byte Reload
	callq	__ZNSt3__116__pad_and_outputIcNS_11char_traitsIcEEEENS_19ostreambuf_iteratorIT_T0_EES6_PKS4_S8_S8_RNS_8ios_baseES4_
Ltmp96:
	movq	%rax, -144(%rbp)        ## 8-byte Spill
	jmp	LBB18_9
LBB18_9:
	.loc	22 0 17 is_stmt 0       ## /Applications/Xcode.app/Contents/Developer/Toolchains/XcodeDefault.xctoolchain/usr/bin/../include/c++/v1/ostream:0:17
	movq	-144(%rbp), %rax        ## 8-byte Reload
	.loc	22 726 17               ## /Applications/Xcode.app/Contents/Developer/Toolchains/XcodeDefault.xctoolchain/usr/bin/../include/c++/v1/ostream:726:17
	movq	%rax, -64(%rbp)
	.loc	22 733 47 is_stmt 1     ## /Applications/Xcode.app/Contents/Developer/Toolchains/XcodeDefault.xctoolchain/usr/bin/../include/c++/v1/ostream:733:47
	leaq	-64(%rbp), %rdi
	callq	__ZNKSt3__119ostreambuf_iteratorIcNS_11char_traitsIcEEE6failedEv
Ltmp110:
	.loc	22 726 17               ## /Applications/Xcode.app/Contents/Developer/Toolchains/XcodeDefault.xctoolchain/usr/bin/../include/c++/v1/ostream:726:17
	testb	$1, %al
	jne	LBB18_10
	jmp	LBB18_17
LBB18_10:
Ltmp111:
	.loc	22 734 17               ## /Applications/Xcode.app/Contents/Developer/Toolchains/XcodeDefault.xctoolchain/usr/bin/../include/c++/v1/ostream:734:17
	movq	-8(%rbp), %rax
	movq	(%rax), %rcx
	movq	-24(%rcx), %rcx
	addq	%rcx, %rax
Ltmp97:
	movl	$5, %esi
	.loc	22 734 22 is_stmt 0     ## /Applications/Xcode.app/Contents/Developer/Toolchains/XcodeDefault.xctoolchain/usr/bin/../include/c++/v1/ostream:734:22
	movq	%rax, %rdi
	callq	__ZNSt3__19basic_iosIcNS_11char_traitsIcEEE8setstateEj
Ltmp98:
	jmp	LBB18_11
LBB18_11:
	.loc	22 734 17               ## /Applications/Xcode.app/Contents/Developer/Toolchains/XcodeDefault.xctoolchain/usr/bin/../include/c++/v1/ostream:734:17
	jmp	LBB18_17
Ltmp112:
LBB18_12:
Ltmp88:
	.loc	22 744 1 is_stmt 1      ## /Applications/Xcode.app/Contents/Developer/Toolchains/XcodeDefault.xctoolchain/usr/bin/../include/c++/v1/ostream:744:1
	movl	%edx, %ecx
	movq	%rax, -48(%rbp)
	movl	%ecx, -52(%rbp)
	jmp	LBB18_14
LBB18_13:
Ltmp99:
Ltmp113:
	.loc	22 744 1 is_stmt 0      ## /Applications/Xcode.app/Contents/Developer/Toolchains/XcodeDefault.xctoolchain/usr/bin/../include/c++/v1/ostream:744:1
	movl	%edx, %ecx
	movq	%rax, -48(%rbp)
	movl	%ecx, -52(%rbp)
Ltmp114:
	.loc	22 737 5 is_stmt 1      ## /Applications/Xcode.app/Contents/Developer/Toolchains/XcodeDefault.xctoolchain/usr/bin/../include/c++/v1/ostream:737:5
	leaq	-40(%rbp), %rdi
	callq	__ZNSt3__113basic_ostreamIcNS_11char_traitsIcEEE6sentryD1Ev
LBB18_14:
Ltmp115:
	.loc	22 737 5 is_stmt 0      ## /Applications/Xcode.app/Contents/Developer/Toolchains/XcodeDefault.xctoolchain/usr/bin/../include/c++/v1/ostream:737:5
	movq	-48(%rbp), %rdi
	callq	___cxa_begin_catch
Ltmp116:
	.loc	22 740 9 is_stmt 1      ## /Applications/Xcode.app/Contents/Developer/Toolchains/XcodeDefault.xctoolchain/usr/bin/../include/c++/v1/ostream:740:9
	movq	-8(%rbp), %rdi
	movq	(%rdi), %rcx
	movq	-24(%rcx), %rcx
	addq	%rcx, %rdi
Ltmp100:
	movq	%rax, -152(%rbp)        ## 8-byte Spill
	.loc	22 740 14 is_stmt 0     ## /Applications/Xcode.app/Contents/Developer/Toolchains/XcodeDefault.xctoolchain/usr/bin/../include/c++/v1/ostream:740:14
	callq	__ZNSt3__18ios_base33__set_badbit_and_consider_rethrowEv
Ltmp101:
	jmp	LBB18_15
LBB18_15:
	.loc	22 741 5 is_stmt 1      ## /Applications/Xcode.app/Contents/Developer/Toolchains/XcodeDefault.xctoolchain/usr/bin/../include/c++/v1/ostream:741:5
	callq	___cxa_end_catch
Ltmp117:
LBB18_16:
	.loc	22 743 12               ## /Applications/Xcode.app/Contents/Developer/Toolchains/XcodeDefault.xctoolchain/usr/bin/../include/c++/v1/ostream:743:12
	movq	-8(%rbp), %rax
	.loc	22 743 5 is_stmt 0      ## /Applications/Xcode.app/Contents/Developer/Toolchains/XcodeDefault.xctoolchain/usr/bin/../include/c++/v1/ostream:743:5
	addq	$160, %rsp
	popq	%rbp
	retq
LBB18_17:
Ltmp118:
	.loc	22 735 9 is_stmt 1      ## /Applications/Xcode.app/Contents/Developer/Toolchains/XcodeDefault.xctoolchain/usr/bin/../include/c++/v1/ostream:735:9
	jmp	LBB18_18
Ltmp119:
LBB18_18:
	.loc	22 737 5                ## /Applications/Xcode.app/Contents/Developer/Toolchains/XcodeDefault.xctoolchain/usr/bin/../include/c++/v1/ostream:737:5
	leaq	-40(%rbp), %rdi
	callq	__ZNSt3__113basic_ostreamIcNS_11char_traitsIcEEE6sentryD1Ev
Ltmp120:
	.loc	22 737 5 is_stmt 0      ## /Applications/Xcode.app/Contents/Developer/Toolchains/XcodeDefault.xctoolchain/usr/bin/../include/c++/v1/ostream:737:5
	jmp	LBB18_16
Ltmp121:
LBB18_19:
Ltmp102:
	.loc	22 744 1 is_stmt 1      ## /Applications/Xcode.app/Contents/Developer/Toolchains/XcodeDefault.xctoolchain/usr/bin/../include/c++/v1/ostream:744:1
	movl	%edx, %ecx
	movq	%rax, -48(%rbp)
	movl	%ecx, -52(%rbp)
Ltmp103:
	.loc	22 741 5                ## /Applications/Xcode.app/Contents/Developer/Toolchains/XcodeDefault.xctoolchain/usr/bin/../include/c++/v1/ostream:741:5
	callq	___cxa_end_catch
Ltmp104:
	jmp	LBB18_20
LBB18_20:
	jmp	LBB18_21
LBB18_21:
	movq	-48(%rbp), %rdi
	callq	__Unwind_Resume
	ud2
LBB18_22:
Ltmp105:
	movq	%rax, %rdi
	movq	%rdx, -160(%rbp)        ## 8-byte Spill
	callq	___clang_call_terminate
Ltmp122:
Lfunc_end18:
	.cfi_endproc
	.section	__TEXT,__gcc_except_tab
	.p2align	2
GCC_except_table18:
Lexception1:
	.byte	255                     ## @LPStart Encoding = omit
	.byte	155                     ## @TType Encoding = indirect pcrel sdata4
	.uleb128 Lttbase0-Lttbaseref0
Lttbaseref0:
	.byte	1                       ## Call site Encoding = uleb128
	.uleb128 Lcst_end1-Lcst_begin1
Lcst_begin1:
	.uleb128 Ltmp86-Lfunc_begin18   ## >> Call Site 1 <<
	.uleb128 Ltmp87-Ltmp86          ##   Call between Ltmp86 and Ltmp87
	.uleb128 Ltmp88-Lfunc_begin18   ##     jumps to Ltmp88
	.byte	1                       ##   On action: 1
	.uleb128 Ltmp89-Lfunc_begin18   ## >> Call Site 2 <<
	.uleb128 Ltmp98-Ltmp89          ##   Call between Ltmp89 and Ltmp98
	.uleb128 Ltmp99-Lfunc_begin18   ##     jumps to Ltmp99
	.byte	1                       ##   On action: 1
	.uleb128 Ltmp98-Lfunc_begin18   ## >> Call Site 3 <<
	.uleb128 Ltmp100-Ltmp98         ##   Call between Ltmp98 and Ltmp100
	.byte	0                       ##     has no landing pad
	.byte	0                       ##   On action: cleanup
	.uleb128 Ltmp100-Lfunc_begin18  ## >> Call Site 4 <<
	.uleb128 Ltmp101-Ltmp100        ##   Call between Ltmp100 and Ltmp101
	.uleb128 Ltmp102-Lfunc_begin18  ##     jumps to Ltmp102
	.byte	0                       ##   On action: cleanup
	.uleb128 Ltmp101-Lfunc_begin18  ## >> Call Site 5 <<
	.uleb128 Ltmp103-Ltmp101        ##   Call between Ltmp101 and Ltmp103
	.byte	0                       ##     has no landing pad
	.byte	0                       ##   On action: cleanup
	.uleb128 Ltmp103-Lfunc_begin18  ## >> Call Site 6 <<
	.uleb128 Ltmp104-Ltmp103        ##   Call between Ltmp103 and Ltmp104
	.uleb128 Ltmp105-Lfunc_begin18  ##     jumps to Ltmp105
	.byte	1                       ##   On action: 1
	.uleb128 Ltmp104-Lfunc_begin18  ## >> Call Site 7 <<
	.uleb128 Lfunc_end18-Ltmp104    ##   Call between Ltmp104 and Lfunc_end18
	.byte	0                       ##     has no landing pad
	.byte	0                       ##   On action: cleanup
Lcst_end1:
	.byte	1                       ## >> Action Record 1 <<
                                        ##   Catch TypeInfo 1
	.byte	0                       ##   No further actions
	.p2align	2
                                        ## >> Catch TypeInfos <<
	.long	0                       ## TypeInfo 1
Lttbase0:
	.p2align	2
                                        ## -- End function
	.section	__TEXT,__text,regular,pure_instructions
	.globl	__ZNSt3__111char_traitsIcE6lengthEPKc ## -- Begin function _ZNSt3__111char_traitsIcE6lengthEPKc
	.weak_definition	__ZNSt3__111char_traitsIcE6lengthEPKc
	.p2align	4, 0x90
__ZNSt3__111char_traitsIcE6lengthEPKc:  ## @_ZNSt3__111char_traitsIcE6lengthEPKc
Lfunc_begin19:
	.loc	11 218 0                ## /Applications/Xcode.app/Contents/Developer/Toolchains/XcodeDefault.xctoolchain/usr/bin/../include/c++/v1/__string:218:0
	.cfi_startproc
## %bb.0:
	pushq	%rbp
	.cfi_def_cfa_offset 16
	.cfi_offset %rbp, -16
	movq	%rsp, %rbp
	.cfi_def_cfa_register %rbp
	subq	$16, %rsp
	movq	%rdi, -8(%rbp)
Ltmp123:
	.loc	11 218 68 prologue_end  ## /Applications/Xcode.app/Contents/Developer/Toolchains/XcodeDefault.xctoolchain/usr/bin/../include/c++/v1/__string:218:68
	movq	-8(%rbp), %rdi
	.loc	11 218 51 is_stmt 0     ## /Applications/Xcode.app/Contents/Developer/Toolchains/XcodeDefault.xctoolchain/usr/bin/../include/c++/v1/__string:218:51
	callq	_strlen
	.loc	11 218 44               ## /Applications/Xcode.app/Contents/Developer/Toolchains/XcodeDefault.xctoolchain/usr/bin/../include/c++/v1/__string:218:44
	addq	$16, %rsp
	popq	%rbp
	retq
Ltmp124:
Lfunc_end19:
	.cfi_endproc
                                        ## -- End function
	.p2align	4, 0x90         ## -- Begin function _ZNKSt3__113basic_ostreamIcNS_11char_traitsIcEEE6sentrycvbEv
__ZNKSt3__113basic_ostreamIcNS_11char_traitsIcEEE6sentrycvbEv: ## @_ZNKSt3__113basic_ostreamIcNS_11char_traitsIcEEE6sentrycvbEv
Lfunc_begin20:
	.loc	22 255 0 is_stmt 1      ## /Applications/Xcode.app/Contents/Developer/Toolchains/XcodeDefault.xctoolchain/usr/bin/../include/c++/v1/ostream:255:0
	.cfi_startproc
## %bb.0:
	pushq	%rbp
	.cfi_def_cfa_offset 16
	.cfi_offset %rbp, -16
	movq	%rsp, %rbp
	.cfi_def_cfa_register %rbp
	movq	%rdi, -8(%rbp)
	movq	-8(%rbp), %rdi
Ltmp125:
	.loc	22 255 39 prologue_end  ## /Applications/Xcode.app/Contents/Developer/Toolchains/XcodeDefault.xctoolchain/usr/bin/../include/c++/v1/ostream:255:39
	movb	(%rdi), %al
	.loc	22 255 32 is_stmt 0     ## /Applications/Xcode.app/Contents/Developer/Toolchains/XcodeDefault.xctoolchain/usr/bin/../include/c++/v1/ostream:255:32
	andb	$1, %al
	movzbl	%al, %eax
	popq	%rbp
	retq
Ltmp126:
Lfunc_end20:
	.cfi_endproc
                                        ## -- End function
	.private_extern	__ZNSt3__116__pad_and_outputIcNS_11char_traitsIcEEEENS_19ostreambuf_iteratorIT_T0_EES6_PKS4_S8_S8_RNS_8ios_baseES4_ ## -- Begin function _ZNSt3__116__pad_and_outputIcNS_11char_traitsIcEEEENS_19ostreambuf_iteratorIT_T0_EES6_PKS4_S8_S8_RNS_8ios_baseES4_
	.globl	__ZNSt3__116__pad_and_outputIcNS_11char_traitsIcEEEENS_19ostreambuf_iteratorIT_T0_EES6_PKS4_S8_S8_RNS_8ios_baseES4_
	.weak_definition	__ZNSt3__116__pad_and_outputIcNS_11char_traitsIcEEEENS_19ostreambuf_iteratorIT_T0_EES6_PKS4_S8_S8_RNS_8ios_baseES4_
	.p2align	4, 0x90
__ZNSt3__116__pad_and_outputIcNS_11char_traitsIcEEEENS_19ostreambuf_iteratorIT_T0_EES6_PKS4_S8_S8_RNS_8ios_baseES4_: ## @_ZNSt3__116__pad_and_outputIcNS_11char_traitsIcEEEENS_19ostreambuf_iteratorIT_T0_EES6_PKS4_S8_S8_RNS_8ios_baseES4_
Lfunc_begin21:
	.file	71 "/Applications/Xcode.app/Contents/Developer/Toolchains/XcodeDefault.xctoolchain/usr/bin/../include/c++/v1" "locale"
	.loc	71 1386 0 is_stmt 1     ## /Applications/Xcode.app/Contents/Developer/Toolchains/XcodeDefault.xctoolchain/usr/bin/../include/c++/v1/locale:1386:0
	.cfi_startproc
	.cfi_personality 155, ___gxx_personality_v0
	.cfi_lsda 16, Lexception2
## %bb.0:
	pushq	%rbp
	.cfi_def_cfa_offset 16
	.cfi_offset %rbp, -16
	movq	%rsp, %rbp
	.cfi_def_cfa_register %rbp
	subq	$160, %rsp
	movb	%r9b, %al
	movq	%rdi, -16(%rbp)
	movq	%rsi, -24(%rbp)
	movq	%rdx, -32(%rbp)
	movq	%rcx, -40(%rbp)
	movq	%r8, -48(%rbp)
	movb	%al, -49(%rbp)
Ltmp130:
	.loc	71 1387 21 prologue_end ## /Applications/Xcode.app/Contents/Developer/Toolchains/XcodeDefault.xctoolchain/usr/bin/../include/c++/v1/locale:1387:21
	cmpq	$0, -16(%rbp)
Ltmp131:
	.loc	71 1387 9 is_stmt 0     ## /Applications/Xcode.app/Contents/Developer/Toolchains/XcodeDefault.xctoolchain/usr/bin/../include/c++/v1/locale:1387:9
	jne	LBB21_2
## %bb.1:
Ltmp132:
	.loc	71 1388 16 is_stmt 1    ## /Applications/Xcode.app/Contents/Developer/Toolchains/XcodeDefault.xctoolchain/usr/bin/../include/c++/v1/locale:1388:16
	movq	-16(%rbp), %rax
	movq	%rax, -8(%rbp)
	.loc	71 1388 9 is_stmt 0     ## /Applications/Xcode.app/Contents/Developer/Toolchains/XcodeDefault.xctoolchain/usr/bin/../include/c++/v1/locale:1388:9
	jmp	LBB21_22
Ltmp133:
LBB21_2:
	.loc	71 1389 23 is_stmt 1    ## /Applications/Xcode.app/Contents/Developer/Toolchains/XcodeDefault.xctoolchain/usr/bin/../include/c++/v1/locale:1389:23
	movq	-40(%rbp), %rax
	.loc	71 1389 30 is_stmt 0    ## /Applications/Xcode.app/Contents/Developer/Toolchains/XcodeDefault.xctoolchain/usr/bin/../include/c++/v1/locale:1389:30
	movq	-24(%rbp), %rcx
	.loc	71 1389 28              ## /Applications/Xcode.app/Contents/Developer/Toolchains/XcodeDefault.xctoolchain/usr/bin/../include/c++/v1/locale:1389:28
	subq	%rcx, %rax
	.loc	71 1389 16              ## /Applications/Xcode.app/Contents/Developer/Toolchains/XcodeDefault.xctoolchain/usr/bin/../include/c++/v1/locale:1389:16
	movq	%rax, -64(%rbp)
	.loc	71 1390 23 is_stmt 1    ## /Applications/Xcode.app/Contents/Developer/Toolchains/XcodeDefault.xctoolchain/usr/bin/../include/c++/v1/locale:1390:23
	movq	-48(%rbp), %rdi
	.loc	71 1390 29 is_stmt 0    ## /Applications/Xcode.app/Contents/Developer/Toolchains/XcodeDefault.xctoolchain/usr/bin/../include/c++/v1/locale:1390:29
	callq	__ZNKSt3__18ios_base5widthEv
	.loc	71 1390 16              ## /Applications/Xcode.app/Contents/Developer/Toolchains/XcodeDefault.xctoolchain/usr/bin/../include/c++/v1/locale:1390:16
	movq	%rax, -72(%rbp)
Ltmp134:
	.loc	71 1391 9 is_stmt 1     ## /Applications/Xcode.app/Contents/Developer/Toolchains/XcodeDefault.xctoolchain/usr/bin/../include/c++/v1/locale:1391:9
	movq	-72(%rbp), %rax
	.loc	71 1391 14 is_stmt 0    ## /Applications/Xcode.app/Contents/Developer/Toolchains/XcodeDefault.xctoolchain/usr/bin/../include/c++/v1/locale:1391:14
	cmpq	-64(%rbp), %rax
Ltmp135:
	.loc	71 1391 9               ## /Applications/Xcode.app/Contents/Developer/Toolchains/XcodeDefault.xctoolchain/usr/bin/../include/c++/v1/locale:1391:9
	jle	LBB21_4
## %bb.3:
Ltmp136:
	.loc	71 1392 17 is_stmt 1    ## /Applications/Xcode.app/Contents/Developer/Toolchains/XcodeDefault.xctoolchain/usr/bin/../include/c++/v1/locale:1392:17
	movq	-64(%rbp), %rax
	.loc	71 1392 14 is_stmt 0    ## /Applications/Xcode.app/Contents/Developer/Toolchains/XcodeDefault.xctoolchain/usr/bin/../include/c++/v1/locale:1392:14
	movq	-72(%rbp), %rcx
	subq	%rax, %rcx
	movq	%rcx, -72(%rbp)
	.loc	71 1392 9               ## /Applications/Xcode.app/Contents/Developer/Toolchains/XcodeDefault.xctoolchain/usr/bin/../include/c++/v1/locale:1392:9
	jmp	LBB21_5
LBB21_4:
	.loc	71 1394 14 is_stmt 1    ## /Applications/Xcode.app/Contents/Developer/Toolchains/XcodeDefault.xctoolchain/usr/bin/../include/c++/v1/locale:1394:14
	movq	$0, -72(%rbp)
Ltmp137:
LBB21_5:
	.loc	71 1395 23              ## /Applications/Xcode.app/Contents/Developer/Toolchains/XcodeDefault.xctoolchain/usr/bin/../include/c++/v1/locale:1395:23
	movq	-32(%rbp), %rax
	.loc	71 1395 30 is_stmt 0    ## /Applications/Xcode.app/Contents/Developer/Toolchains/XcodeDefault.xctoolchain/usr/bin/../include/c++/v1/locale:1395:30
	movq	-24(%rbp), %rcx
	.loc	71 1395 28              ## /Applications/Xcode.app/Contents/Developer/Toolchains/XcodeDefault.xctoolchain/usr/bin/../include/c++/v1/locale:1395:28
	subq	%rcx, %rax
	.loc	71 1395 16              ## /Applications/Xcode.app/Contents/Developer/Toolchains/XcodeDefault.xctoolchain/usr/bin/../include/c++/v1/locale:1395:16
	movq	%rax, -80(%rbp)
Ltmp138:
	.loc	71 1396 14 is_stmt 1    ## /Applications/Xcode.app/Contents/Developer/Toolchains/XcodeDefault.xctoolchain/usr/bin/../include/c++/v1/locale:1396:14
	cmpq	$0, -80(%rbp)
Ltmp139:
	.loc	71 1396 9 is_stmt 0     ## /Applications/Xcode.app/Contents/Developer/Toolchains/XcodeDefault.xctoolchain/usr/bin/../include/c++/v1/locale:1396:9
	jle	LBB21_9
## %bb.6:
Ltmp140:
	.loc	71 1398 17 is_stmt 1    ## /Applications/Xcode.app/Contents/Developer/Toolchains/XcodeDefault.xctoolchain/usr/bin/../include/c++/v1/locale:1398:17
	movq	-16(%rbp), %rdi
	.loc	71 1398 32 is_stmt 0    ## /Applications/Xcode.app/Contents/Developer/Toolchains/XcodeDefault.xctoolchain/usr/bin/../include/c++/v1/locale:1398:32
	movq	-24(%rbp), %rsi
	.loc	71 1398 38              ## /Applications/Xcode.app/Contents/Developer/Toolchains/XcodeDefault.xctoolchain/usr/bin/../include/c++/v1/locale:1398:38
	movq	-80(%rbp), %rdx
	.loc	71 1398 26              ## /Applications/Xcode.app/Contents/Developer/Toolchains/XcodeDefault.xctoolchain/usr/bin/../include/c++/v1/locale:1398:26
	callq	__ZNSt3__115basic_streambufIcNS_11char_traitsIcEEE5sputnEPKcl
	.loc	71 1398 44              ## /Applications/Xcode.app/Contents/Developer/Toolchains/XcodeDefault.xctoolchain/usr/bin/../include/c++/v1/locale:1398:44
	cmpq	-80(%rbp), %rax
Ltmp141:
	.loc	71 1398 13              ## /Applications/Xcode.app/Contents/Developer/Toolchains/XcodeDefault.xctoolchain/usr/bin/../include/c++/v1/locale:1398:13
	je	LBB21_8
## %bb.7:
Ltmp142:
	.loc	71 1400 25 is_stmt 1    ## /Applications/Xcode.app/Contents/Developer/Toolchains/XcodeDefault.xctoolchain/usr/bin/../include/c++/v1/locale:1400:25
	movq	$0, -16(%rbp)
	.loc	71 1401 20              ## /Applications/Xcode.app/Contents/Developer/Toolchains/XcodeDefault.xctoolchain/usr/bin/../include/c++/v1/locale:1401:20
	movq	-16(%rbp), %rax
	movq	%rax, -8(%rbp)
	.loc	71 1401 13 is_stmt 0    ## /Applications/Xcode.app/Contents/Developer/Toolchains/XcodeDefault.xctoolchain/usr/bin/../include/c++/v1/locale:1401:13
	jmp	LBB21_22
Ltmp143:
LBB21_8:
	.loc	71 1403 5 is_stmt 1     ## /Applications/Xcode.app/Contents/Developer/Toolchains/XcodeDefault.xctoolchain/usr/bin/../include/c++/v1/locale:1403:5
	jmp	LBB21_9
Ltmp144:
LBB21_9:
	.loc	71 1404 14              ## /Applications/Xcode.app/Contents/Developer/Toolchains/XcodeDefault.xctoolchain/usr/bin/../include/c++/v1/locale:1404:14
	cmpq	$0, -72(%rbp)
Ltmp145:
	.loc	71 1404 9 is_stmt 0     ## /Applications/Xcode.app/Contents/Developer/Toolchains/XcodeDefault.xctoolchain/usr/bin/../include/c++/v1/locale:1404:9
	jle	LBB21_17
## %bb.10:
Ltmp146:
	.loc	71 1406 44 is_stmt 1    ## /Applications/Xcode.app/Contents/Developer/Toolchains/XcodeDefault.xctoolchain/usr/bin/../include/c++/v1/locale:1406:44
	movq	-72(%rbp), %rsi
	.loc	71 1406 50 is_stmt 0    ## /Applications/Xcode.app/Contents/Developer/Toolchains/XcodeDefault.xctoolchain/usr/bin/../include/c++/v1/locale:1406:50
	movsbl	-49(%rbp), %edx
	leaq	-104(%rbp), %rax
	.loc	71 1406 39              ## /Applications/Xcode.app/Contents/Developer/Toolchains/XcodeDefault.xctoolchain/usr/bin/../include/c++/v1/locale:1406:39
	movq	%rax, %rdi
	movq	%rax, -128(%rbp)        ## 8-byte Spill
	callq	__ZNSt3__112basic_stringIcNS_11char_traitsIcEENS_9allocatorIcEEEC1Emc
Ltmp147:
	.loc	71 1407 17 is_stmt 1    ## /Applications/Xcode.app/Contents/Developer/Toolchains/XcodeDefault.xctoolchain/usr/bin/../include/c++/v1/locale:1407:17
	movq	-16(%rbp), %rdi
	movq	-128(%rbp), %rax        ## 8-byte Reload
	movq	%rdi, -136(%rbp)        ## 8-byte Spill
	.loc	71 1407 37 is_stmt 0    ## /Applications/Xcode.app/Contents/Developer/Toolchains/XcodeDefault.xctoolchain/usr/bin/../include/c++/v1/locale:1407:37
	movq	%rax, %rdi
	callq	__ZNSt3__112basic_stringIcNS_11char_traitsIcEENS_9allocatorIcEEE4dataEv
	.loc	71 1407 45              ## /Applications/Xcode.app/Contents/Developer/Toolchains/XcodeDefault.xctoolchain/usr/bin/../include/c++/v1/locale:1407:45
	movq	-72(%rbp), %rdx
Ltmp127:
	movq	-136(%rbp), %rdi        ## 8-byte Reload
	.loc	71 1407 26              ## /Applications/Xcode.app/Contents/Developer/Toolchains/XcodeDefault.xctoolchain/usr/bin/../include/c++/v1/locale:1407:26
	movq	%rax, %rsi
	callq	__ZNSt3__115basic_streambufIcNS_11char_traitsIcEEE5sputnEPKcl
Ltmp128:
	movq	%rax, -144(%rbp)        ## 8-byte Spill
	jmp	LBB21_11
LBB21_11:
	.loc	71 0 26                 ## /Applications/Xcode.app/Contents/Developer/Toolchains/XcodeDefault.xctoolchain/usr/bin/../include/c++/v1/locale:0:26
	movq	-144(%rbp), %rax        ## 8-byte Reload
	.loc	71 1407 51              ## /Applications/Xcode.app/Contents/Developer/Toolchains/XcodeDefault.xctoolchain/usr/bin/../include/c++/v1/locale:1407:51
	cmpq	-72(%rbp), %rax
Ltmp148:
	.loc	71 1407 13              ## /Applications/Xcode.app/Contents/Developer/Toolchains/XcodeDefault.xctoolchain/usr/bin/../include/c++/v1/locale:1407:13
	je	LBB21_14
## %bb.12:
Ltmp149:
	.loc	71 1409 25 is_stmt 1    ## /Applications/Xcode.app/Contents/Developer/Toolchains/XcodeDefault.xctoolchain/usr/bin/../include/c++/v1/locale:1409:25
	movq	$0, -16(%rbp)
	.loc	71 1410 20              ## /Applications/Xcode.app/Contents/Developer/Toolchains/XcodeDefault.xctoolchain/usr/bin/../include/c++/v1/locale:1410:20
	movq	-16(%rbp), %rax
	movq	%rax, -8(%rbp)
	movl	$1, -120(%rbp)
	.loc	71 1410 13 is_stmt 0    ## /Applications/Xcode.app/Contents/Developer/Toolchains/XcodeDefault.xctoolchain/usr/bin/../include/c++/v1/locale:1410:13
	jmp	LBB21_15
Ltmp150:
LBB21_13:
Ltmp129:
	.loc	71 1424 1 is_stmt 1     ## /Applications/Xcode.app/Contents/Developer/Toolchains/XcodeDefault.xctoolchain/usr/bin/../include/c++/v1/locale:1424:1
	movl	%edx, %ecx
	movq	%rax, -112(%rbp)
	movl	%ecx, -116(%rbp)
Ltmp151:
	.loc	71 1412 5               ## /Applications/Xcode.app/Contents/Developer/Toolchains/XcodeDefault.xctoolchain/usr/bin/../include/c++/v1/locale:1412:5
	leaq	-104(%rbp), %rdi
	callq	__ZNSt3__112basic_stringIcNS_11char_traitsIcEENS_9allocatorIcEEED1Ev
	jmp	LBB21_23
LBB21_14:
	movl	$0, -120(%rbp)
LBB21_15:
	.loc	71 0 5 is_stmt 0        ## /Applications/Xcode.app/Contents/Developer/Toolchains/XcodeDefault.xctoolchain/usr/bin/../include/c++/v1/locale:0:5
	leaq	-104(%rbp), %rdi
	.loc	71 1412 5               ## /Applications/Xcode.app/Contents/Developer/Toolchains/XcodeDefault.xctoolchain/usr/bin/../include/c++/v1/locale:1412:5
	callq	__ZNSt3__112basic_stringIcNS_11char_traitsIcEENS_9allocatorIcEEED1Ev
	movl	-120(%rbp), %eax
	testl	%eax, %eax
	movl	%eax, -148(%rbp)        ## 4-byte Spill
	je	LBB21_16
	jmp	LBB21_25
LBB21_25:
	.loc	71 0 5                  ## /Applications/Xcode.app/Contents/Developer/Toolchains/XcodeDefault.xctoolchain/usr/bin/../include/c++/v1/locale:0:5
	movl	-148(%rbp), %eax        ## 4-byte Reload
	subl	$1, %eax
	movl	%eax, -152(%rbp)        ## 4-byte Spill
	je	LBB21_22
	jmp	LBB21_24
LBB21_16:
Ltmp152:
	.loc	71 1412 5               ## /Applications/Xcode.app/Contents/Developer/Toolchains/XcodeDefault.xctoolchain/usr/bin/../include/c++/v1/locale:1412:5
	jmp	LBB21_17
Ltmp153:
LBB21_17:
	.loc	71 1413 12 is_stmt 1    ## /Applications/Xcode.app/Contents/Developer/Toolchains/XcodeDefault.xctoolchain/usr/bin/../include/c++/v1/locale:1413:12
	movq	-40(%rbp), %rax
	.loc	71 1413 19 is_stmt 0    ## /Applications/Xcode.app/Contents/Developer/Toolchains/XcodeDefault.xctoolchain/usr/bin/../include/c++/v1/locale:1413:19
	movq	-32(%rbp), %rcx
	.loc	71 1413 17              ## /Applications/Xcode.app/Contents/Developer/Toolchains/XcodeDefault.xctoolchain/usr/bin/../include/c++/v1/locale:1413:17
	subq	%rcx, %rax
	.loc	71 1413 10              ## /Applications/Xcode.app/Contents/Developer/Toolchains/XcodeDefault.xctoolchain/usr/bin/../include/c++/v1/locale:1413:10
	movq	%rax, -80(%rbp)
Ltmp154:
	.loc	71 1414 14 is_stmt 1    ## /Applications/Xcode.app/Contents/Developer/Toolchains/XcodeDefault.xctoolchain/usr/bin/../include/c++/v1/locale:1414:14
	cmpq	$0, -80(%rbp)
Ltmp155:
	.loc	71 1414 9 is_stmt 0     ## /Applications/Xcode.app/Contents/Developer/Toolchains/XcodeDefault.xctoolchain/usr/bin/../include/c++/v1/locale:1414:9
	jle	LBB21_21
## %bb.18:
Ltmp156:
	.loc	71 1416 17 is_stmt 1    ## /Applications/Xcode.app/Contents/Developer/Toolchains/XcodeDefault.xctoolchain/usr/bin/../include/c++/v1/locale:1416:17
	movq	-16(%rbp), %rdi
	.loc	71 1416 32 is_stmt 0    ## /Applications/Xcode.app/Contents/Developer/Toolchains/XcodeDefault.xctoolchain/usr/bin/../include/c++/v1/locale:1416:32
	movq	-32(%rbp), %rsi
	.loc	71 1416 38              ## /Applications/Xcode.app/Contents/Developer/Toolchains/XcodeDefault.xctoolchain/usr/bin/../include/c++/v1/locale:1416:38
	movq	-80(%rbp), %rdx
	.loc	71 1416 26              ## /Applications/Xcode.app/Contents/Developer/Toolchains/XcodeDefault.xctoolchain/usr/bin/../include/c++/v1/locale:1416:26
	callq	__ZNSt3__115basic_streambufIcNS_11char_traitsIcEEE5sputnEPKcl
	.loc	71 1416 44              ## /Applications/Xcode.app/Contents/Developer/Toolchains/XcodeDefault.xctoolchain/usr/bin/../include/c++/v1/locale:1416:44
	cmpq	-80(%rbp), %rax
Ltmp157:
	.loc	71 1416 13              ## /Applications/Xcode.app/Contents/Developer/Toolchains/XcodeDefault.xctoolchain/usr/bin/../include/c++/v1/locale:1416:13
	je	LBB21_20
## %bb.19:
Ltmp158:
	.loc	71 1418 25 is_stmt 1    ## /Applications/Xcode.app/Contents/Developer/Toolchains/XcodeDefault.xctoolchain/usr/bin/../include/c++/v1/locale:1418:25
	movq	$0, -16(%rbp)
	.loc	71 1419 20              ## /Applications/Xcode.app/Contents/Developer/Toolchains/XcodeDefault.xctoolchain/usr/bin/../include/c++/v1/locale:1419:20
	movq	-16(%rbp), %rax
	movq	%rax, -8(%rbp)
	.loc	71 1419 13 is_stmt 0    ## /Applications/Xcode.app/Contents/Developer/Toolchains/XcodeDefault.xctoolchain/usr/bin/../include/c++/v1/locale:1419:13
	jmp	LBB21_22
Ltmp159:
LBB21_20:
	.loc	71 1421 5 is_stmt 1     ## /Applications/Xcode.app/Contents/Developer/Toolchains/XcodeDefault.xctoolchain/usr/bin/../include/c++/v1/locale:1421:5
	jmp	LBB21_21
Ltmp160:
LBB21_21:
	.loc	71 0 5 is_stmt 0        ## /Applications/Xcode.app/Contents/Developer/Toolchains/XcodeDefault.xctoolchain/usr/bin/../include/c++/v1/locale:0:5
	xorl	%eax, %eax
	movl	%eax, %esi
	.loc	71 1422 5 is_stmt 1     ## /Applications/Xcode.app/Contents/Developer/Toolchains/XcodeDefault.xctoolchain/usr/bin/../include/c++/v1/locale:1422:5
	movq	-48(%rbp), %rdi
	.loc	71 1422 11 is_stmt 0    ## /Applications/Xcode.app/Contents/Developer/Toolchains/XcodeDefault.xctoolchain/usr/bin/../include/c++/v1/locale:1422:11
	callq	__ZNSt3__18ios_base5widthEl
	.loc	71 1423 12 is_stmt 1    ## /Applications/Xcode.app/Contents/Developer/Toolchains/XcodeDefault.xctoolchain/usr/bin/../include/c++/v1/locale:1423:12
	movq	-16(%rbp), %rsi
	movq	%rsi, -8(%rbp)
	movq	%rax, -160(%rbp)        ## 8-byte Spill
LBB21_22:
	.loc	71 1424 1               ## /Applications/Xcode.app/Contents/Developer/Toolchains/XcodeDefault.xctoolchain/usr/bin/../include/c++/v1/locale:1424:1
	movq	-8(%rbp), %rax
	addq	$160, %rsp
	popq	%rbp
	retq
LBB21_23:
Ltmp161:
	.loc	71 1412 5               ## /Applications/Xcode.app/Contents/Developer/Toolchains/XcodeDefault.xctoolchain/usr/bin/../include/c++/v1/locale:1412:5
	movq	-112(%rbp), %rdi
	callq	__Unwind_Resume
	ud2
Ltmp162:
LBB21_24:
	.loc	71 0 5 is_stmt 0        ## /Applications/Xcode.app/Contents/Developer/Toolchains/XcodeDefault.xctoolchain/usr/bin/../include/c++/v1/locale:0:5
	ud2
Lfunc_end21:
	.cfi_endproc
	.section	__TEXT,__gcc_except_tab
	.p2align	2
GCC_except_table21:
Lexception2:
	.byte	255                     ## @LPStart Encoding = omit
	.byte	255                     ## @TType Encoding = omit
	.byte	1                       ## Call site Encoding = uleb128
	.uleb128 Lcst_end2-Lcst_begin2
Lcst_begin2:
	.uleb128 Lfunc_begin21-Lfunc_begin21 ## >> Call Site 1 <<
	.uleb128 Ltmp127-Lfunc_begin21  ##   Call between Lfunc_begin21 and Ltmp127
	.byte	0                       ##     has no landing pad
	.byte	0                       ##   On action: cleanup
	.uleb128 Ltmp127-Lfunc_begin21  ## >> Call Site 2 <<
	.uleb128 Ltmp128-Ltmp127        ##   Call between Ltmp127 and Ltmp128
	.uleb128 Ltmp129-Lfunc_begin21  ##     jumps to Ltmp129
	.byte	0                       ##   On action: cleanup
	.uleb128 Ltmp128-Lfunc_begin21  ## >> Call Site 3 <<
	.uleb128 Lfunc_end21-Ltmp128    ##   Call between Ltmp128 and Lfunc_end21
	.byte	0                       ##     has no landing pad
	.byte	0                       ##   On action: cleanup
Lcst_end2:
	.p2align	2
                                        ## -- End function
	.section	__TEXT,__text,regular,pure_instructions
	.p2align	4, 0x90         ## -- Begin function _ZNSt3__119ostreambuf_iteratorIcNS_11char_traitsIcEEEC1ERNS_13basic_ostreamIcS2_EE
__ZNSt3__119ostreambuf_iteratorIcNS_11char_traitsIcEEEC1ERNS_13basic_ostreamIcS2_EE: ## @_ZNSt3__119ostreambuf_iteratorIcNS_11char_traitsIcEEEC1ERNS_13basic_ostreamIcS2_EE
Lfunc_begin22:
	.loc	20 1068 0 is_stmt 1     ## /Applications/Xcode.app/Contents/Developer/Toolchains/XcodeDefault.xctoolchain/usr/bin/../include/c++/v1/iterator:1068:0
	.cfi_startproc
## %bb.0:
	pushq	%rbp
	.cfi_def_cfa_offset 16
	.cfi_offset %rbp, -16
	movq	%rsp, %rbp
	.cfi_def_cfa_register %rbp
	subq	$16, %rsp
	movq	%rdi, -8(%rbp)
	movq	%rsi, -16(%rbp)
	movq	-8(%rbp), %rdi
Ltmp163:
	.loc	20 1068 32 prologue_end ## /Applications/Xcode.app/Contents/Developer/Toolchains/XcodeDefault.xctoolchain/usr/bin/../include/c++/v1/iterator:1068:32
	movq	-16(%rbp), %rsi
	callq	__ZNSt3__119ostreambuf_iteratorIcNS_11char_traitsIcEEEC2ERNS_13basic_ostreamIcS2_EE
	.loc	20 1068 33 is_stmt 0    ## /Applications/Xcode.app/Contents/Developer/Toolchains/XcodeDefault.xctoolchain/usr/bin/../include/c++/v1/iterator:1068:33
	addq	$16, %rsp
	popq	%rbp
	retq
Ltmp164:
Lfunc_end22:
	.cfi_endproc
                                        ## -- End function
	.p2align	4, 0x90         ## -- Begin function _ZNKSt3__18ios_base5flagsEv
__ZNKSt3__18ios_base5flagsEv:           ## @_ZNKSt3__18ios_base5flagsEv
Lfunc_begin23:
	.loc	1 460 0 is_stmt 1       ## /Applications/Xcode.app/Contents/Developer/Toolchains/XcodeDefault.xctoolchain/usr/bin/../include/c++/v1/ios:460:0
	.cfi_startproc
## %bb.0:
	pushq	%rbp
	.cfi_def_cfa_offset 16
	.cfi_offset %rbp, -16
	movq	%rsp, %rbp
	.cfi_def_cfa_register %rbp
	movq	%rdi, -8(%rbp)
	movq	-8(%rbp), %rdi
Ltmp165:
	.loc	1 461 12 prologue_end   ## /Applications/Xcode.app/Contents/Developer/Toolchains/XcodeDefault.xctoolchain/usr/bin/../include/c++/v1/ios:461:12
	movl	8(%rdi), %eax
	.loc	1 461 5 is_stmt 0       ## /Applications/Xcode.app/Contents/Developer/Toolchains/XcodeDefault.xctoolchain/usr/bin/../include/c++/v1/ios:461:5
	popq	%rbp
	retq
Ltmp166:
Lfunc_end23:
	.cfi_endproc
                                        ## -- End function
	.p2align	4, 0x90         ## -- Begin function _ZNKSt3__19basic_iosIcNS_11char_traitsIcEEE4fillEv
__ZNKSt3__19basic_iosIcNS_11char_traitsIcEEE4fillEv: ## @_ZNKSt3__19basic_iosIcNS_11char_traitsIcEEE4fillEv
Lfunc_begin24:
	.loc	1 785 0 is_stmt 1       ## /Applications/Xcode.app/Contents/Developer/Toolchains/XcodeDefault.xctoolchain/usr/bin/../include/c++/v1/ios:785:0
	.cfi_startproc
## %bb.0:
	pushq	%rbp
	.cfi_def_cfa_offset 16
	.cfi_offset %rbp, -16
	movq	%rsp, %rbp
	.cfi_def_cfa_register %rbp
	subq	$16, %rsp
	movq	%rdi, -8(%rbp)
	movq	-8(%rbp), %rdi
	movq	%rdi, -16(%rbp)         ## 8-byte Spill
Ltmp167:
	.loc	1 786 34 prologue_end   ## /Applications/Xcode.app/Contents/Developer/Toolchains/XcodeDefault.xctoolchain/usr/bin/../include/c++/v1/ios:786:34
	callq	__ZNSt3__111char_traitsIcE3eofEv
	movq	-16(%rbp), %rdi         ## 8-byte Reload
	.loc	1 786 54 is_stmt 0      ## /Applications/Xcode.app/Contents/Developer/Toolchains/XcodeDefault.xctoolchain/usr/bin/../include/c++/v1/ios:786:54
	movl	144(%rdi), %esi
	.loc	1 786 9                 ## /Applications/Xcode.app/Contents/Developer/Toolchains/XcodeDefault.xctoolchain/usr/bin/../include/c++/v1/ios:786:9
	movl	%eax, %edi
	callq	__ZNSt3__111char_traitsIcE11eq_int_typeEii
Ltmp168:
	.loc	1 786 9                 ## /Applications/Xcode.app/Contents/Developer/Toolchains/XcodeDefault.xctoolchain/usr/bin/../include/c++/v1/ios:786:9
	testb	$1, %al
	jne	LBB24_1
	jmp	LBB24_2
LBB24_1:
	.loc	1 0 9                   ## /Applications/Xcode.app/Contents/Developer/Toolchains/XcodeDefault.xctoolchain/usr/bin/../include/c++/v1/ios:0:9
	movq	-16(%rbp), %rdi         ## 8-byte Reload
Ltmp169:
	.loc	1 787 19 is_stmt 1      ## /Applications/Xcode.app/Contents/Developer/Toolchains/XcodeDefault.xctoolchain/usr/bin/../include/c++/v1/ios:787:19
	movl	$32, %esi
	callq	__ZNKSt3__19basic_iosIcNS_11char_traitsIcEEE5widenEc
	movsbl	%al, %esi
	movq	-16(%rbp), %rdi         ## 8-byte Reload
	.loc	1 787 17 is_stmt 0      ## /Applications/Xcode.app/Contents/Developer/Toolchains/XcodeDefault.xctoolchain/usr/bin/../include/c++/v1/ios:787:17
	movl	%esi, 144(%rdi)
Ltmp170:
LBB24_2:
	.loc	1 0 17                  ## /Applications/Xcode.app/Contents/Developer/Toolchains/XcodeDefault.xctoolchain/usr/bin/../include/c++/v1/ios:0:17
	movq	-16(%rbp), %rax         ## 8-byte Reload
	.loc	1 788 12 is_stmt 1      ## /Applications/Xcode.app/Contents/Developer/Toolchains/XcodeDefault.xctoolchain/usr/bin/../include/c++/v1/ios:788:12
	movl	144(%rax), %ecx
	movb	%cl, %dl
	.loc	1 788 5 is_stmt 0       ## /Applications/Xcode.app/Contents/Developer/Toolchains/XcodeDefault.xctoolchain/usr/bin/../include/c++/v1/ios:788:5
	movsbl	%dl, %ecx
	movl	%ecx, %eax
	addq	$16, %rsp
	popq	%rbp
	retq
Ltmp171:
Lfunc_end24:
	.cfi_endproc
                                        ## -- End function
	.p2align	4, 0x90         ## -- Begin function _ZNKSt3__119ostreambuf_iteratorIcNS_11char_traitsIcEEE6failedEv
__ZNKSt3__119ostreambuf_iteratorIcNS_11char_traitsIcEEE6failedEv: ## @_ZNKSt3__119ostreambuf_iteratorIcNS_11char_traitsIcEEE6failedEv
Lfunc_begin25:
	.loc	20 1080 0 is_stmt 1     ## /Applications/Xcode.app/Contents/Developer/Toolchains/XcodeDefault.xctoolchain/usr/bin/../include/c++/v1/iterator:1080:0
	.cfi_startproc
## %bb.0:
	pushq	%rbp
	.cfi_def_cfa_offset 16
	.cfi_offset %rbp, -16
	movq	%rsp, %rbp
	.cfi_def_cfa_register %rbp
	movq	%rdi, -8(%rbp)
	movq	-8(%rbp), %rdi
Ltmp172:
	.loc	20 1080 128 prologue_end ## /Applications/Xcode.app/Contents/Developer/Toolchains/XcodeDefault.xctoolchain/usr/bin/../include/c++/v1/iterator:1080:128
	cmpq	$0, (%rdi)
	sete	%al
	.loc	20 1080 113 is_stmt 0   ## /Applications/Xcode.app/Contents/Developer/Toolchains/XcodeDefault.xctoolchain/usr/bin/../include/c++/v1/iterator:1080:113
	andb	$1, %al
	movzbl	%al, %eax
	popq	%rbp
	retq
Ltmp173:
Lfunc_end25:
	.cfi_endproc
                                        ## -- End function
	.p2align	4, 0x90         ## -- Begin function _ZNSt3__19basic_iosIcNS_11char_traitsIcEEE8setstateEj
__ZNSt3__19basic_iosIcNS_11char_traitsIcEEE8setstateEj: ## @_ZNSt3__19basic_iosIcNS_11char_traitsIcEEE8setstateEj
Lfunc_begin26:
	.loc	1 633 0 is_stmt 1       ## /Applications/Xcode.app/Contents/Developer/Toolchains/XcodeDefault.xctoolchain/usr/bin/../include/c++/v1/ios:633:0
	.cfi_startproc
## %bb.0:
	pushq	%rbp
	.cfi_def_cfa_offset 16
	.cfi_offset %rbp, -16
	movq	%rsp, %rbp
	.cfi_def_cfa_register %rbp
	subq	$16, %rsp
	movq	%rdi, -8(%rbp)
	movl	%esi, -12(%rbp)
	movq	-8(%rbp), %rdi
Ltmp174:
	.loc	1 633 134 prologue_end  ## /Applications/Xcode.app/Contents/Developer/Toolchains/XcodeDefault.xctoolchain/usr/bin/../include/c++/v1/ios:633:134
	movl	-12(%rbp), %esi
	.loc	1 633 125 is_stmt 0     ## /Applications/Xcode.app/Contents/Developer/Toolchains/XcodeDefault.xctoolchain/usr/bin/../include/c++/v1/ios:633:125
	callq	__ZNSt3__18ios_base8setstateEj
	.loc	1 633 143               ## /Applications/Xcode.app/Contents/Developer/Toolchains/XcodeDefault.xctoolchain/usr/bin/../include/c++/v1/ios:633:143
	addq	$16, %rsp
	popq	%rbp
	retq
Ltmp175:
Lfunc_end26:
	.cfi_endproc
                                        ## -- End function
	.private_extern	___clang_call_terminate ## -- Begin function __clang_call_terminate
	.globl	___clang_call_terminate
	.weak_definition	___clang_call_terminate
	.p2align	4, 0x90
___clang_call_terminate:                ## @__clang_call_terminate
Lfunc_begin27:
	.cfi_startproc
## %bb.0:
	pushq	%rax
	.cfi_def_cfa_offset 16
	callq	___cxa_begin_catch
	movq	%rax, (%rsp)            ## 8-byte Spill
	callq	__ZSt9terminatev
Lfunc_end27:
	.cfi_endproc
                                        ## -- End function
	.p2align	4, 0x90         ## -- Begin function _ZNKSt3__18ios_base5widthEv
__ZNKSt3__18ios_base5widthEv:           ## @_ZNKSt3__18ios_base5widthEv
Lfunc_begin28:
	.loc	1 522 0 is_stmt 1       ## /Applications/Xcode.app/Contents/Developer/Toolchains/XcodeDefault.xctoolchain/usr/bin/../include/c++/v1/ios:522:0
	.cfi_startproc
## %bb.0:
	pushq	%rbp
	.cfi_def_cfa_offset 16
	.cfi_offset %rbp, -16
	movq	%rsp, %rbp
	.cfi_def_cfa_register %rbp
	movq	%rdi, -8(%rbp)
	movq	-8(%rbp), %rdi
Ltmp176:
	.loc	1 523 12 prologue_end   ## /Applications/Xcode.app/Contents/Developer/Toolchains/XcodeDefault.xctoolchain/usr/bin/../include/c++/v1/ios:523:12
	movq	24(%rdi), %rax
	.loc	1 523 5 is_stmt 0       ## /Applications/Xcode.app/Contents/Developer/Toolchains/XcodeDefault.xctoolchain/usr/bin/../include/c++/v1/ios:523:5
	popq	%rbp
	retq
Ltmp177:
Lfunc_end28:
	.cfi_endproc
                                        ## -- End function
	.p2align	4, 0x90         ## -- Begin function _ZNSt3__115basic_streambufIcNS_11char_traitsIcEEE5sputnEPKcl
__ZNSt3__115basic_streambufIcNS_11char_traitsIcEEE5sputnEPKcl: ## @_ZNSt3__115basic_streambufIcNS_11char_traitsIcEEE5sputnEPKcl
Lfunc_begin29:
	.loc	21 230 0 is_stmt 1      ## /Applications/Xcode.app/Contents/Developer/Toolchains/XcodeDefault.xctoolchain/usr/bin/../include/c++/v1/streambuf:230:0
	.cfi_startproc
## %bb.0:
	pushq	%rbp
	.cfi_def_cfa_offset 16
	.cfi_offset %rbp, -16
	movq	%rsp, %rbp
	.cfi_def_cfa_register %rbp
	subq	$32, %rsp
	movq	%rdi, -8(%rbp)
	movq	%rsi, -16(%rbp)
	movq	%rdx, -24(%rbp)
	movq	-8(%rbp), %rdx
Ltmp178:
	.loc	21 230 21 prologue_end  ## /Applications/Xcode.app/Contents/Developer/Toolchains/XcodeDefault.xctoolchain/usr/bin/../include/c++/v1/streambuf:230:21
	movq	-16(%rbp), %rsi
	.loc	21 230 26 is_stmt 0     ## /Applications/Xcode.app/Contents/Developer/Toolchains/XcodeDefault.xctoolchain/usr/bin/../include/c++/v1/streambuf:230:26
	movq	-24(%rbp), %rdi
	.loc	21 230 14               ## /Applications/Xcode.app/Contents/Developer/Toolchains/XcodeDefault.xctoolchain/usr/bin/../include/c++/v1/streambuf:230:14
	movq	(%rdx), %rax
	movq	%rdi, -32(%rbp)         ## 8-byte Spill
	movq	%rdx, %rdi
	movq	-32(%rbp), %rdx         ## 8-byte Reload
	callq	*96(%rax)
	.loc	21 230 7                ## /Applications/Xcode.app/Contents/Developer/Toolchains/XcodeDefault.xctoolchain/usr/bin/../include/c++/v1/streambuf:230:7
	addq	$32, %rsp
	popq	%rbp
	retq
Ltmp179:
Lfunc_end29:
	.cfi_endproc
                                        ## -- End function
	.p2align	4, 0x90         ## -- Begin function _ZNSt3__112basic_stringIcNS_11char_traitsIcEENS_9allocatorIcEEEC1Emc
__ZNSt3__112basic_stringIcNS_11char_traitsIcEENS_9allocatorIcEEEC1Emc: ## @_ZNSt3__112basic_stringIcNS_11char_traitsIcEENS_9allocatorIcEEEC1Emc
Lfunc_begin30:
	.loc	6 1927 0 is_stmt 1      ## /Applications/Xcode.app/Contents/Developer/Toolchains/XcodeDefault.xctoolchain/usr/bin/../include/c++/v1/string:1927:0
	.cfi_startproc
## %bb.0:
	pushq	%rbp
	.cfi_def_cfa_offset 16
	.cfi_offset %rbp, -16
	movq	%rsp, %rbp
	.cfi_def_cfa_register %rbp
	subq	$32, %rsp
	movb	%dl, %al
	movq	%rdi, -8(%rbp)
	movq	%rsi, -16(%rbp)
	movb	%al, -17(%rbp)
	movq	-8(%rbp), %rdi
Ltmp180:
	.loc	6 1927 1 prologue_end   ## /Applications/Xcode.app/Contents/Developer/Toolchains/XcodeDefault.xctoolchain/usr/bin/../include/c++/v1/string:1927:1
	movq	-16(%rbp), %rsi
	movsbl	-17(%rbp), %edx
	callq	__ZNSt3__112basic_stringIcNS_11char_traitsIcEENS_9allocatorIcEEEC2Emc
	.loc	6 1932 1                ## /Applications/Xcode.app/Contents/Developer/Toolchains/XcodeDefault.xctoolchain/usr/bin/../include/c++/v1/string:1932:1
	addq	$32, %rsp
	popq	%rbp
	retq
Ltmp181:
Lfunc_end30:
	.cfi_endproc
                                        ## -- End function
	.p2align	4, 0x90         ## -- Begin function _ZNSt3__112basic_stringIcNS_11char_traitsIcEENS_9allocatorIcEEE4dataEv
__ZNSt3__112basic_stringIcNS_11char_traitsIcEENS_9allocatorIcEEE4dataEv: ## @_ZNSt3__112basic_stringIcNS_11char_traitsIcEENS_9allocatorIcEEE4dataEv
Lfunc_begin31:
	.loc	6 1246 0                ## /Applications/Xcode.app/Contents/Developer/Toolchains/XcodeDefault.xctoolchain/usr/bin/../include/c++/v1/string:1246:0
	.cfi_startproc
## %bb.0:
	pushq	%rbp
	.cfi_def_cfa_offset 16
	.cfi_offset %rbp, -16
	movq	%rsp, %rbp
	.cfi_def_cfa_register %rbp
	subq	$16, %rsp
	movq	%rdi, -8(%rbp)
	movq	-8(%rbp), %rdi
Ltmp182:
	.loc	6 1246 68 prologue_end  ## /Applications/Xcode.app/Contents/Developer/Toolchains/XcodeDefault.xctoolchain/usr/bin/../include/c++/v1/string:1246:68
	callq	__ZNSt3__112basic_stringIcNS_11char_traitsIcEENS_9allocatorIcEEE13__get_pointerEv
	.loc	6 1246 41 is_stmt 0     ## /Applications/Xcode.app/Contents/Developer/Toolchains/XcodeDefault.xctoolchain/usr/bin/../include/c++/v1/string:1246:41
	movq	%rax, %rdi
	callq	__ZNSt3__1L16__to_raw_pointerIcEEPT_S2_
	.loc	6 1246 34               ## /Applications/Xcode.app/Contents/Developer/Toolchains/XcodeDefault.xctoolchain/usr/bin/../include/c++/v1/string:1246:34
	addq	$16, %rsp
	popq	%rbp
	retq
Ltmp183:
Lfunc_end31:
	.cfi_endproc
                                        ## -- End function
	.p2align	4, 0x90         ## -- Begin function _ZNSt3__18ios_base5widthEl
__ZNSt3__18ios_base5widthEl:            ## @_ZNSt3__18ios_base5widthEl
Lfunc_begin32:
	.loc	1 529 0 is_stmt 1       ## /Applications/Xcode.app/Contents/Developer/Toolchains/XcodeDefault.xctoolchain/usr/bin/../include/c++/v1/ios:529:0
	.cfi_startproc
## %bb.0:
	pushq	%rbp
	.cfi_def_cfa_offset 16
	.cfi_offset %rbp, -16
	movq	%rsp, %rbp
	.cfi_def_cfa_register %rbp
	movq	%rdi, -8(%rbp)
	movq	%rsi, -16(%rbp)
	movq	-8(%rbp), %rsi
Ltmp184:
	.loc	1 530 22 prologue_end   ## /Applications/Xcode.app/Contents/Developer/Toolchains/XcodeDefault.xctoolchain/usr/bin/../include/c++/v1/ios:530:22
	movq	24(%rsi), %rdi
	.loc	1 530 16 is_stmt 0      ## /Applications/Xcode.app/Contents/Developer/Toolchains/XcodeDefault.xctoolchain/usr/bin/../include/c++/v1/ios:530:16
	movq	%rdi, -24(%rbp)
	.loc	1 531 16 is_stmt 1      ## /Applications/Xcode.app/Contents/Developer/Toolchains/XcodeDefault.xctoolchain/usr/bin/../include/c++/v1/ios:531:16
	movq	-16(%rbp), %rdi
	.loc	1 531 14 is_stmt 0      ## /Applications/Xcode.app/Contents/Developer/Toolchains/XcodeDefault.xctoolchain/usr/bin/../include/c++/v1/ios:531:14
	movq	%rdi, 24(%rsi)
	.loc	1 532 12 is_stmt 1      ## /Applications/Xcode.app/Contents/Developer/Toolchains/XcodeDefault.xctoolchain/usr/bin/../include/c++/v1/ios:532:12
	movq	-24(%rbp), %rax
	.loc	1 532 5 is_stmt 0       ## /Applications/Xcode.app/Contents/Developer/Toolchains/XcodeDefault.xctoolchain/usr/bin/../include/c++/v1/ios:532:5
	popq	%rbp
	retq
Ltmp185:
Lfunc_end32:
	.cfi_endproc
                                        ## -- End function
	.p2align	4, 0x90         ## -- Begin function _ZNSt3__112basic_stringIcNS_11char_traitsIcEENS_9allocatorIcEEEC2Emc
__ZNSt3__112basic_stringIcNS_11char_traitsIcEENS_9allocatorIcEEEC2Emc: ## @_ZNSt3__112basic_stringIcNS_11char_traitsIcEENS_9allocatorIcEEEC2Emc
Lfunc_begin33:
	.loc	6 1927 0 is_stmt 1      ## /Applications/Xcode.app/Contents/Developer/Toolchains/XcodeDefault.xctoolchain/usr/bin/../include/c++/v1/string:1927:0
	.cfi_startproc
## %bb.0:
	pushq	%rbp
	.cfi_def_cfa_offset 16
	.cfi_offset %rbp, -16
	movq	%rsp, %rbp
	.cfi_def_cfa_register %rbp
	subq	$32, %rsp
	movb	%dl, %al
	movq	%rdi, -8(%rbp)
	movq	%rsi, -16(%rbp)
	movb	%al, -17(%rbp)
	movq	-8(%rbp), %rsi
Ltmp186:
	.loc	6 835 5 prologue_end    ## /Applications/Xcode.app/Contents/Developer/Toolchains/XcodeDefault.xctoolchain/usr/bin/../include/c++/v1/string:835:5
	movq	%rsi, %rdi
	movq	%rsi, -32(%rbp)         ## 8-byte Spill
	callq	__ZNSt3__117__compressed_pairINS_12basic_stringIcNS_11char_traitsIcEENS_9allocatorIcEEE5__repES5_EC1ILb1EvEEv
Ltmp187:
	.loc	6 1928 12               ## /Applications/Xcode.app/Contents/Developer/Toolchains/XcodeDefault.xctoolchain/usr/bin/../include/c++/v1/string:1928:12
	movq	-16(%rbp), %rsi
	movq	-32(%rbp), %rdi         ## 8-byte Reload
	.loc	6 1928 5 is_stmt 0      ## /Applications/Xcode.app/Contents/Developer/Toolchains/XcodeDefault.xctoolchain/usr/bin/../include/c++/v1/string:1928:5
	movsbl	-17(%rbp), %edx
	callq	__ZNSt3__112basic_stringIcNS_11char_traitsIcEENS_9allocatorIcEEE6__initEmc
Ltmp188:
	.loc	6 1932 1 is_stmt 1      ## /Applications/Xcode.app/Contents/Developer/Toolchains/XcodeDefault.xctoolchain/usr/bin/../include/c++/v1/string:1932:1
	addq	$32, %rsp
	popq	%rbp
	retq
Ltmp189:
Lfunc_end33:
	.cfi_endproc
                                        ## -- End function
	.p2align	4, 0x90         ## -- Begin function _ZNSt3__117__compressed_pairINS_12basic_stringIcNS_11char_traitsIcEENS_9allocatorIcEEE5__repES5_EC1ILb1EvEEv
__ZNSt3__117__compressed_pairINS_12basic_stringIcNS_11char_traitsIcEENS_9allocatorIcEEE5__repES5_EC1ILb1EvEEv: ## @_ZNSt3__117__compressed_pairINS_12basic_stringIcNS_11char_traitsIcEENS_9allocatorIcEEE5__repES5_EC1ILb1EvEEv
Lfunc_begin34:
	.loc	7 2234 0                ## /Applications/Xcode.app/Contents/Developer/Toolchains/XcodeDefault.xctoolchain/usr/bin/../include/c++/v1/memory:2234:0
	.cfi_startproc
## %bb.0:
	pushq	%rbp
	.cfi_def_cfa_offset 16
	.cfi_offset %rbp, -16
	movq	%rsp, %rbp
	.cfi_def_cfa_register %rbp
	subq	$16, %rsp
	movq	%rdi, -8(%rbp)
	movq	-8(%rbp), %rdi
Ltmp190:
	.loc	7 2234 33 prologue_end  ## /Applications/Xcode.app/Contents/Developer/Toolchains/XcodeDefault.xctoolchain/usr/bin/../include/c++/v1/memory:2234:33
	callq	__ZNSt3__117__compressed_pairINS_12basic_stringIcNS_11char_traitsIcEENS_9allocatorIcEEE5__repES5_EC2ILb1EvEEv
	.loc	7 2234 34 is_stmt 0     ## /Applications/Xcode.app/Contents/Developer/Toolchains/XcodeDefault.xctoolchain/usr/bin/../include/c++/v1/memory:2234:34
	addq	$16, %rsp
	popq	%rbp
	retq
Ltmp191:
Lfunc_end34:
	.cfi_endproc
                                        ## -- End function
	.p2align	4, 0x90         ## -- Begin function _ZNSt3__117__compressed_pairINS_12basic_stringIcNS_11char_traitsIcEENS_9allocatorIcEEE5__repES5_EC2ILb1EvEEv
__ZNSt3__117__compressed_pairINS_12basic_stringIcNS_11char_traitsIcEENS_9allocatorIcEEE5__repES5_EC2ILb1EvEEv: ## @_ZNSt3__117__compressed_pairINS_12basic_stringIcNS_11char_traitsIcEENS_9allocatorIcEEE5__repES5_EC2ILb1EvEEv
Lfunc_begin35:
	.loc	7 2234 0 is_stmt 1      ## /Applications/Xcode.app/Contents/Developer/Toolchains/XcodeDefault.xctoolchain/usr/bin/../include/c++/v1/memory:2234:0
	.cfi_startproc
## %bb.0:
	pushq	%rbp
	.cfi_def_cfa_offset 16
	.cfi_offset %rbp, -16
	movq	%rsp, %rbp
	.cfi_def_cfa_register %rbp
	subq	$16, %rsp
	movq	%rdi, -8(%rbp)
	movq	-8(%rbp), %rdi
Ltmp192:
	.loc	7 2234 33 prologue_end  ## /Applications/Xcode.app/Contents/Developer/Toolchains/XcodeDefault.xctoolchain/usr/bin/../include/c++/v1/memory:2234:33
	movq	%rdi, %rax
	movq	%rdi, -16(%rbp)         ## 8-byte Spill
	.loc	7 2234 13 is_stmt 0     ## /Applications/Xcode.app/Contents/Developer/Toolchains/XcodeDefault.xctoolchain/usr/bin/../include/c++/v1/memory:2234:13
	movq	%rax, %rdi
	callq	__ZNSt3__122__compressed_pair_elemINS_12basic_stringIcNS_11char_traitsIcEENS_9allocatorIcEEE5__repELi0ELb0EEC2Ev
	movq	-16(%rbp), %rax         ## 8-byte Reload
	movq	%rax, %rdi
	callq	__ZNSt3__122__compressed_pair_elemINS_9allocatorIcEELi1ELb1EEC2Ev
	.loc	7 2234 34               ## /Applications/Xcode.app/Contents/Developer/Toolchains/XcodeDefault.xctoolchain/usr/bin/../include/c++/v1/memory:2234:34
	addq	$16, %rsp
	popq	%rbp
	retq
Ltmp193:
Lfunc_end35:
	.cfi_endproc
                                        ## -- End function
	.p2align	4, 0x90         ## -- Begin function _ZNSt3__122__compressed_pair_elemINS_12basic_stringIcNS_11char_traitsIcEENS_9allocatorIcEEE5__repELi0ELb0EEC2Ev
__ZNSt3__122__compressed_pair_elemINS_12basic_stringIcNS_11char_traitsIcEENS_9allocatorIcEEE5__repELi0ELb0EEC2Ev: ## @_ZNSt3__122__compressed_pair_elemINS_12basic_stringIcNS_11char_traitsIcEENS_9allocatorIcEEE5__repELi0ELb0EEC2Ev
Lfunc_begin36:
	.loc	7 2140 0 is_stmt 1      ## /Applications/Xcode.app/Contents/Developer/Toolchains/XcodeDefault.xctoolchain/usr/bin/../include/c++/v1/memory:2140:0
	.cfi_startproc
## %bb.0:
	pushq	%rbp
	.cfi_def_cfa_offset 16
	.cfi_offset %rbp, -16
	movq	%rsp, %rbp
	.cfi_def_cfa_register %rbp
	subq	$16, %rsp
	xorl	%esi, %esi
	movq	%rdi, -8(%rbp)
	movq	-8(%rbp), %rdi
Ltmp194:
	.loc	7 2140 118 prologue_end ## /Applications/Xcode.app/Contents/Developer/Toolchains/XcodeDefault.xctoolchain/usr/bin/../include/c++/v1/memory:2140:118
	movl	$24, %edx
	callq	_memset
	.loc	7 2140 130 is_stmt 0    ## /Applications/Xcode.app/Contents/Developer/Toolchains/XcodeDefault.xctoolchain/usr/bin/../include/c++/v1/memory:2140:130
	addq	$16, %rsp
	popq	%rbp
	retq
Ltmp195:
Lfunc_end36:
	.cfi_endproc
                                        ## -- End function
	.p2align	4, 0x90         ## -- Begin function _ZNSt3__122__compressed_pair_elemINS_9allocatorIcEELi1ELb1EEC2Ev
__ZNSt3__122__compressed_pair_elemINS_9allocatorIcEELi1ELb1EEC2Ev: ## @_ZNSt3__122__compressed_pair_elemINS_9allocatorIcEELi1ELb1EEC2Ev
Lfunc_begin37:
	.loc	7 2179 0 is_stmt 1      ## /Applications/Xcode.app/Contents/Developer/Toolchains/XcodeDefault.xctoolchain/usr/bin/../include/c++/v1/memory:2179:0
	.cfi_startproc
## %bb.0:
	pushq	%rbp
	.cfi_def_cfa_offset 16
	.cfi_offset %rbp, -16
	movq	%rsp, %rbp
	.cfi_def_cfa_register %rbp
	subq	$16, %rsp
	movq	%rdi, -8(%rbp)
	movq	-8(%rbp), %rdi
Ltmp196:
	.loc	7 2179 91 prologue_end  ## /Applications/Xcode.app/Contents/Developer/Toolchains/XcodeDefault.xctoolchain/usr/bin/../include/c++/v1/memory:2179:91
	callq	__ZNSt3__19allocatorIcEC2Ev
	.loc	7 2179 124 is_stmt 0    ## /Applications/Xcode.app/Contents/Developer/Toolchains/XcodeDefault.xctoolchain/usr/bin/../include/c++/v1/memory:2179:124
	addq	$16, %rsp
	popq	%rbp
	retq
Ltmp197:
Lfunc_end37:
	.cfi_endproc
                                        ## -- End function
	.p2align	4, 0x90         ## -- Begin function _ZNSt3__19allocatorIcEC2Ev
__ZNSt3__19allocatorIcEC2Ev:            ## @_ZNSt3__19allocatorIcEC2Ev
Lfunc_begin38:
	.loc	7 1798 0 is_stmt 1      ## /Applications/Xcode.app/Contents/Developer/Toolchains/XcodeDefault.xctoolchain/usr/bin/../include/c++/v1/memory:1798:0
	.cfi_startproc
## %bb.0:
	pushq	%rbp
	.cfi_def_cfa_offset 16
	.cfi_offset %rbp, -16
	movq	%rsp, %rbp
	.cfi_def_cfa_register %rbp
	movq	%rdi, -8(%rbp)
Ltmp198:
	.loc	7 1798 27 prologue_end  ## /Applications/Xcode.app/Contents/Developer/Toolchains/XcodeDefault.xctoolchain/usr/bin/../include/c++/v1/memory:1798:27
	popq	%rbp
	retq
Ltmp199:
Lfunc_end38:
	.cfi_endproc
                                        ## -- End function
	.p2align	4, 0x90         ## -- Begin function _ZNSt3__1L16__to_raw_pointerIcEEPT_S2_
__ZNSt3__1L16__to_raw_pointerIcEEPT_S2_: ## @_ZNSt3__1L16__to_raw_pointerIcEEPT_S2_
Lfunc_begin39:
	.loc	7 1107 0                ## /Applications/Xcode.app/Contents/Developer/Toolchains/XcodeDefault.xctoolchain/usr/bin/../include/c++/v1/memory:1107:0
	.cfi_startproc
## %bb.0:
	pushq	%rbp
	.cfi_def_cfa_offset 16
	.cfi_offset %rbp, -16
	movq	%rsp, %rbp
	.cfi_def_cfa_register %rbp
	movq	%rdi, -8(%rbp)
Ltmp200:
	.loc	7 1108 12 prologue_end  ## /Applications/Xcode.app/Contents/Developer/Toolchains/XcodeDefault.xctoolchain/usr/bin/../include/c++/v1/memory:1108:12
	movq	-8(%rbp), %rax
	.loc	7 1108 5 is_stmt 0      ## /Applications/Xcode.app/Contents/Developer/Toolchains/XcodeDefault.xctoolchain/usr/bin/../include/c++/v1/memory:1108:5
	popq	%rbp
	retq
Ltmp201:
Lfunc_end39:
	.cfi_endproc
                                        ## -- End function
	.p2align	4, 0x90         ## -- Begin function _ZNSt3__112basic_stringIcNS_11char_traitsIcEENS_9allocatorIcEEE13__get_pointerEv
__ZNSt3__112basic_stringIcNS_11char_traitsIcEENS_9allocatorIcEEE13__get_pointerEv: ## @_ZNSt3__112basic_stringIcNS_11char_traitsIcEENS_9allocatorIcEEE13__get_pointerEv
Lfunc_begin40:
	.loc	6 1512 0 is_stmt 1      ## /Applications/Xcode.app/Contents/Developer/Toolchains/XcodeDefault.xctoolchain/usr/bin/../include/c++/v1/string:1512:0
	.cfi_startproc
## %bb.0:
	pushq	%rbp
	.cfi_def_cfa_offset 16
	.cfi_offset %rbp, -16
	movq	%rsp, %rbp
	.cfi_def_cfa_register %rbp
	subq	$32, %rsp
	movq	%rdi, -8(%rbp)
	movq	-8(%rbp), %rdi
	movq	%rdi, -16(%rbp)         ## 8-byte Spill
Ltmp202:
	.loc	6 1512 17 prologue_end  ## /Applications/Xcode.app/Contents/Developer/Toolchains/XcodeDefault.xctoolchain/usr/bin/../include/c++/v1/string:1512:17
	callq	__ZNKSt3__112basic_stringIcNS_11char_traitsIcEENS_9allocatorIcEEE9__is_longEv
	testb	$1, %al
	jne	LBB40_1
	jmp	LBB40_2
LBB40_1:
	.loc	6 0 17 is_stmt 0        ## /Applications/Xcode.app/Contents/Developer/Toolchains/XcodeDefault.xctoolchain/usr/bin/../include/c++/v1/string:0:17
	movq	-16(%rbp), %rdi         ## 8-byte Reload
	.loc	6 1512 31               ## /Applications/Xcode.app/Contents/Developer/Toolchains/XcodeDefault.xctoolchain/usr/bin/../include/c++/v1/string:1512:31
	callq	__ZNSt3__112basic_stringIcNS_11char_traitsIcEENS_9allocatorIcEEE18__get_long_pointerEv
	movq	%rax, -24(%rbp)         ## 8-byte Spill
	.loc	6 1512 17               ## /Applications/Xcode.app/Contents/Developer/Toolchains/XcodeDefault.xctoolchain/usr/bin/../include/c++/v1/string:1512:17
	jmp	LBB40_3
LBB40_2:
	.loc	6 0 17                  ## /Applications/Xcode.app/Contents/Developer/Toolchains/XcodeDefault.xctoolchain/usr/bin/../include/c++/v1/string:0:17
	movq	-16(%rbp), %rdi         ## 8-byte Reload
	.loc	6 1512 54               ## /Applications/Xcode.app/Contents/Developer/Toolchains/XcodeDefault.xctoolchain/usr/bin/../include/c++/v1/string:1512:54
	callq	__ZNSt3__112basic_stringIcNS_11char_traitsIcEENS_9allocatorIcEEE19__get_short_pointerEv
	movq	%rax, -24(%rbp)         ## 8-byte Spill
LBB40_3:
	.loc	6 0 54                  ## /Applications/Xcode.app/Contents/Developer/Toolchains/XcodeDefault.xctoolchain/usr/bin/../include/c++/v1/string:0:54
	movq	-24(%rbp), %rax         ## 8-byte Reload
	.loc	6 1512 10               ## /Applications/Xcode.app/Contents/Developer/Toolchains/XcodeDefault.xctoolchain/usr/bin/../include/c++/v1/string:1512:10
	addq	$32, %rsp
	popq	%rbp
	retq
Ltmp203:
Lfunc_end40:
	.cfi_endproc
                                        ## -- End function
	.p2align	4, 0x90         ## -- Begin function _ZNKSt3__112basic_stringIcNS_11char_traitsIcEENS_9allocatorIcEEE9__is_longEv
__ZNKSt3__112basic_stringIcNS_11char_traitsIcEENS_9allocatorIcEEE9__is_longEv: ## @_ZNKSt3__112basic_stringIcNS_11char_traitsIcEENS_9allocatorIcEEE9__is_longEv
Lfunc_begin41:
	.loc	6 1421 0 is_stmt 1      ## /Applications/Xcode.app/Contents/Developer/Toolchains/XcodeDefault.xctoolchain/usr/bin/../include/c++/v1/string:1421:0
	.cfi_startproc
## %bb.0:
	pushq	%rbp
	.cfi_def_cfa_offset 16
	.cfi_offset %rbp, -16
	movq	%rsp, %rbp
	.cfi_def_cfa_register %rbp
	subq	$16, %rsp
	movq	%rdi, -8(%rbp)
	movq	-8(%rbp), %rdi
Ltmp204:
	.loc	6 1421 27 prologue_end  ## /Applications/Xcode.app/Contents/Developer/Toolchains/XcodeDefault.xctoolchain/usr/bin/../include/c++/v1/string:1421:27
	callq	__ZNKSt3__117__compressed_pairINS_12basic_stringIcNS_11char_traitsIcEENS_9allocatorIcEEE5__repES5_E5firstEv
	.loc	6 1421 22 is_stmt 0     ## /Applications/Xcode.app/Contents/Developer/Toolchains/XcodeDefault.xctoolchain/usr/bin/../include/c++/v1/string:1421:22
	movzbl	(%rax), %ecx
	movl	%ecx, %eax
	.loc	6 1421 47               ## /Applications/Xcode.app/Contents/Developer/Toolchains/XcodeDefault.xctoolchain/usr/bin/../include/c++/v1/string:1421:47
	andq	$1, %rax
	.loc	6 1421 22               ## /Applications/Xcode.app/Contents/Developer/Toolchains/XcodeDefault.xctoolchain/usr/bin/../include/c++/v1/string:1421:22
	cmpq	$0, %rax
	setne	%dl
	.loc	6 1421 10               ## /Applications/Xcode.app/Contents/Developer/Toolchains/XcodeDefault.xctoolchain/usr/bin/../include/c++/v1/string:1421:10
	andb	$1, %dl
	movzbl	%dl, %eax
	addq	$16, %rsp
	popq	%rbp
	retq
Ltmp205:
Lfunc_end41:
	.cfi_endproc
                                        ## -- End function
	.p2align	4, 0x90         ## -- Begin function _ZNSt3__112basic_stringIcNS_11char_traitsIcEENS_9allocatorIcEEE18__get_long_pointerEv
__ZNSt3__112basic_stringIcNS_11char_traitsIcEENS_9allocatorIcEEE18__get_long_pointerEv: ## @_ZNSt3__112basic_stringIcNS_11char_traitsIcEENS_9allocatorIcEEE18__get_long_pointerEv
Lfunc_begin42:
	.loc	6 1500 0 is_stmt 1      ## /Applications/Xcode.app/Contents/Developer/Toolchains/XcodeDefault.xctoolchain/usr/bin/../include/c++/v1/string:1500:0
	.cfi_startproc
## %bb.0:
	pushq	%rbp
	.cfi_def_cfa_offset 16
	.cfi_offset %rbp, -16
	movq	%rsp, %rbp
	.cfi_def_cfa_register %rbp
	subq	$16, %rsp
	movq	%rdi, -8(%rbp)
	movq	-8(%rbp), %rdi
Ltmp206:
	.loc	6 1500 22 prologue_end  ## /Applications/Xcode.app/Contents/Developer/Toolchains/XcodeDefault.xctoolchain/usr/bin/../include/c++/v1/string:1500:22
	callq	__ZNSt3__117__compressed_pairINS_12basic_stringIcNS_11char_traitsIcEENS_9allocatorIcEEE5__repES5_E5firstEv
	.loc	6 1500 34 is_stmt 0     ## /Applications/Xcode.app/Contents/Developer/Toolchains/XcodeDefault.xctoolchain/usr/bin/../include/c++/v1/string:1500:34
	movq	16(%rax), %rax
	.loc	6 1500 10               ## /Applications/Xcode.app/Contents/Developer/Toolchains/XcodeDefault.xctoolchain/usr/bin/../include/c++/v1/string:1500:10
	addq	$16, %rsp
	popq	%rbp
	retq
Ltmp207:
Lfunc_end42:
	.cfi_endproc
                                        ## -- End function
	.p2align	4, 0x90         ## -- Begin function _ZNSt3__112basic_stringIcNS_11char_traitsIcEENS_9allocatorIcEEE19__get_short_pointerEv
__ZNSt3__112basic_stringIcNS_11char_traitsIcEENS_9allocatorIcEEE19__get_short_pointerEv: ## @_ZNSt3__112basic_stringIcNS_11char_traitsIcEENS_9allocatorIcEEE19__get_short_pointerEv
Lfunc_begin43:
	.loc	6 1506 0 is_stmt 1      ## /Applications/Xcode.app/Contents/Developer/Toolchains/XcodeDefault.xctoolchain/usr/bin/../include/c++/v1/string:1506:0
	.cfi_startproc
## %bb.0:
	pushq	%rbp
	.cfi_def_cfa_offset 16
	.cfi_offset %rbp, -16
	movq	%rsp, %rbp
	.cfi_def_cfa_register %rbp
	subq	$16, %rsp
	movq	%rdi, -8(%rbp)
	movq	-8(%rbp), %rdi
Ltmp208:
	.loc	6 1506 58 prologue_end  ## /Applications/Xcode.app/Contents/Developer/Toolchains/XcodeDefault.xctoolchain/usr/bin/../include/c++/v1/string:1506:58
	callq	__ZNSt3__117__compressed_pairINS_12basic_stringIcNS_11char_traitsIcEENS_9allocatorIcEEE5__repES5_E5firstEv
	.loc	6 1506 70 is_stmt 0     ## /Applications/Xcode.app/Contents/Developer/Toolchains/XcodeDefault.xctoolchain/usr/bin/../include/c++/v1/string:1506:70
	addq	$1, %rax
	.loc	6 1506 17               ## /Applications/Xcode.app/Contents/Developer/Toolchains/XcodeDefault.xctoolchain/usr/bin/../include/c++/v1/string:1506:17
	movq	%rax, %rdi
	callq	__ZNSt3__114pointer_traitsIPcE10pointer_toERc
	.loc	6 1506 10               ## /Applications/Xcode.app/Contents/Developer/Toolchains/XcodeDefault.xctoolchain/usr/bin/../include/c++/v1/string:1506:10
	addq	$16, %rsp
	popq	%rbp
	retq
Ltmp209:
Lfunc_end43:
	.cfi_endproc
                                        ## -- End function
	.p2align	4, 0x90         ## -- Begin function _ZNKSt3__117__compressed_pairINS_12basic_stringIcNS_11char_traitsIcEENS_9allocatorIcEEE5__repES5_E5firstEv
__ZNKSt3__117__compressed_pairINS_12basic_stringIcNS_11char_traitsIcEENS_9allocatorIcEEE5__repES5_E5firstEv: ## @_ZNKSt3__117__compressed_pairINS_12basic_stringIcNS_11char_traitsIcEENS_9allocatorIcEEE5__repES5_E5firstEv
Lfunc_begin44:
	.loc	7 2284 0 is_stmt 1      ## /Applications/Xcode.app/Contents/Developer/Toolchains/XcodeDefault.xctoolchain/usr/bin/../include/c++/v1/memory:2284:0
	.cfi_startproc
## %bb.0:
	pushq	%rbp
	.cfi_def_cfa_offset 16
	.cfi_offset %rbp, -16
	movq	%rsp, %rbp
	.cfi_def_cfa_register %rbp
	subq	$16, %rsp
	movq	%rdi, -8(%rbp)
	movq	-8(%rbp), %rdi
Ltmp210:
	.loc	7 2285 46 prologue_end  ## /Applications/Xcode.app/Contents/Developer/Toolchains/XcodeDefault.xctoolchain/usr/bin/../include/c++/v1/memory:2285:46
	callq	__ZNKSt3__122__compressed_pair_elemINS_12basic_stringIcNS_11char_traitsIcEENS_9allocatorIcEEE5__repELi0ELb0EE5__getEv
	.loc	7 2285 5 is_stmt 0      ## /Applications/Xcode.app/Contents/Developer/Toolchains/XcodeDefault.xctoolchain/usr/bin/../include/c++/v1/memory:2285:5
	addq	$16, %rsp
	popq	%rbp
	retq
Ltmp211:
Lfunc_end44:
	.cfi_endproc
                                        ## -- End function
	.p2align	4, 0x90         ## -- Begin function _ZNKSt3__122__compressed_pair_elemINS_12basic_stringIcNS_11char_traitsIcEENS_9allocatorIcEEE5__repELi0ELb0EE5__getEv
__ZNKSt3__122__compressed_pair_elemINS_12basic_stringIcNS_11char_traitsIcEENS_9allocatorIcEEE5__repELi0ELb0EE5__getEv: ## @_ZNKSt3__122__compressed_pair_elemINS_12basic_stringIcNS_11char_traitsIcEENS_9allocatorIcEEE5__repELi0ELb0EE5__getEv
Lfunc_begin45:
	.loc	7 2165 0 is_stmt 1      ## /Applications/Xcode.app/Contents/Developer/Toolchains/XcodeDefault.xctoolchain/usr/bin/../include/c++/v1/memory:2165:0
	.cfi_startproc
## %bb.0:
	pushq	%rbp
	.cfi_def_cfa_offset 16
	.cfi_offset %rbp, -16
	movq	%rsp, %rbp
	.cfi_def_cfa_register %rbp
	movq	%rdi, -8(%rbp)
	movq	-8(%rbp), %rax
Ltmp212:
	.loc	7 2165 44 prologue_end  ## /Applications/Xcode.app/Contents/Developer/Toolchains/XcodeDefault.xctoolchain/usr/bin/../include/c++/v1/memory:2165:44
	popq	%rbp
	retq
Ltmp213:
Lfunc_end45:
	.cfi_endproc
                                        ## -- End function
	.p2align	4, 0x90         ## -- Begin function _ZNSt3__117__compressed_pairINS_12basic_stringIcNS_11char_traitsIcEENS_9allocatorIcEEE5__repES5_E5firstEv
__ZNSt3__117__compressed_pairINS_12basic_stringIcNS_11char_traitsIcEENS_9allocatorIcEEE5__repES5_E5firstEv: ## @_ZNSt3__117__compressed_pairINS_12basic_stringIcNS_11char_traitsIcEENS_9allocatorIcEEE5__repES5_E5firstEv
Lfunc_begin46:
	.loc	7 2279 0                ## /Applications/Xcode.app/Contents/Developer/Toolchains/XcodeDefault.xctoolchain/usr/bin/../include/c++/v1/memory:2279:0
	.cfi_startproc
## %bb.0:
	pushq	%rbp
	.cfi_def_cfa_offset 16
	.cfi_offset %rbp, -16
	movq	%rsp, %rbp
	.cfi_def_cfa_register %rbp
	subq	$16, %rsp
	movq	%rdi, -8(%rbp)
	movq	-8(%rbp), %rdi
Ltmp214:
	.loc	7 2280 40 prologue_end  ## /Applications/Xcode.app/Contents/Developer/Toolchains/XcodeDefault.xctoolchain/usr/bin/../include/c++/v1/memory:2280:40
	callq	__ZNSt3__122__compressed_pair_elemINS_12basic_stringIcNS_11char_traitsIcEENS_9allocatorIcEEE5__repELi0ELb0EE5__getEv
	.loc	7 2280 5 is_stmt 0      ## /Applications/Xcode.app/Contents/Developer/Toolchains/XcodeDefault.xctoolchain/usr/bin/../include/c++/v1/memory:2280:5
	addq	$16, %rsp
	popq	%rbp
	retq
Ltmp215:
Lfunc_end46:
	.cfi_endproc
                                        ## -- End function
	.p2align	4, 0x90         ## -- Begin function _ZNSt3__122__compressed_pair_elemINS_12basic_stringIcNS_11char_traitsIcEENS_9allocatorIcEEE5__repELi0ELb0EE5__getEv
__ZNSt3__122__compressed_pair_elemINS_12basic_stringIcNS_11char_traitsIcEENS_9allocatorIcEEE5__repELi0ELb0EE5__getEv: ## @_ZNSt3__122__compressed_pair_elemINS_12basic_stringIcNS_11char_traitsIcEENS_9allocatorIcEEE5__repELi0ELb0EE5__getEv
Lfunc_begin47:
	.loc	7 2163 0 is_stmt 1      ## /Applications/Xcode.app/Contents/Developer/Toolchains/XcodeDefault.xctoolchain/usr/bin/../include/c++/v1/memory:2163:0
	.cfi_startproc
## %bb.0:
	pushq	%rbp
	.cfi_def_cfa_offset 16
	.cfi_offset %rbp, -16
	movq	%rsp, %rbp
	.cfi_def_cfa_register %rbp
	movq	%rdi, -8(%rbp)
	movq	-8(%rbp), %rax
Ltmp216:
	.loc	7 2163 110 prologue_end ## /Applications/Xcode.app/Contents/Developer/Toolchains/XcodeDefault.xctoolchain/usr/bin/../include/c++/v1/memory:2163:110
	popq	%rbp
	retq
Ltmp217:
Lfunc_end47:
	.cfi_endproc
                                        ## -- End function
	.p2align	4, 0x90         ## -- Begin function _ZNSt3__114pointer_traitsIPcE10pointer_toERc
__ZNSt3__114pointer_traitsIPcE10pointer_toERc: ## @_ZNSt3__114pointer_traitsIPcE10pointer_toERc
Lfunc_begin48:
	.loc	7 990 0                 ## /Applications/Xcode.app/Contents/Developer/Toolchains/XcodeDefault.xctoolchain/usr/bin/../include/c++/v1/memory:990:0
	.cfi_startproc
## %bb.0:
	pushq	%rbp
	.cfi_def_cfa_offset 16
	.cfi_offset %rbp, -16
	movq	%rsp, %rbp
	.cfi_def_cfa_register %rbp
	subq	$16, %rsp
	movq	%rdi, -8(%rbp)
Ltmp218:
	.loc	7 990 37 prologue_end   ## /Applications/Xcode.app/Contents/Developer/Toolchains/XcodeDefault.xctoolchain/usr/bin/../include/c++/v1/memory:990:37
	movq	-8(%rbp), %rdi
	.loc	7 990 17 is_stmt 0      ## /Applications/Xcode.app/Contents/Developer/Toolchains/XcodeDefault.xctoolchain/usr/bin/../include/c++/v1/memory:990:17
	callq	__ZNSt3__1L9addressofIcEEPT_RS1_
	.loc	7 990 10                ## /Applications/Xcode.app/Contents/Developer/Toolchains/XcodeDefault.xctoolchain/usr/bin/../include/c++/v1/memory:990:10
	addq	$16, %rsp
	popq	%rbp
	retq
Ltmp219:
Lfunc_end48:
	.cfi_endproc
                                        ## -- End function
	.p2align	4, 0x90         ## -- Begin function _ZNSt3__1L9addressofIcEEPT_RS1_
__ZNSt3__1L9addressofIcEEPT_RS1_:       ## @_ZNSt3__1L9addressofIcEEPT_RS1_
Lfunc_begin49:
	.loc	8 455 0 is_stmt 1       ## /Applications/Xcode.app/Contents/Developer/Toolchains/XcodeDefault.xctoolchain/usr/bin/../include/c++/v1/type_traits:455:0
	.cfi_startproc
## %bb.0:
	pushq	%rbp
	.cfi_def_cfa_offset 16
	.cfi_offset %rbp, -16
	movq	%rsp, %rbp
	.cfi_def_cfa_register %rbp
	movq	%rdi, -8(%rbp)
Ltmp220:
	.loc	8 456 32 prologue_end   ## /Applications/Xcode.app/Contents/Developer/Toolchains/XcodeDefault.xctoolchain/usr/bin/../include/c++/v1/type_traits:456:32
	movq	-8(%rbp), %rax
	.loc	8 456 5 is_stmt 0       ## /Applications/Xcode.app/Contents/Developer/Toolchains/XcodeDefault.xctoolchain/usr/bin/../include/c++/v1/type_traits:456:5
	popq	%rbp
	retq
Ltmp221:
Lfunc_end49:
	.cfi_endproc
                                        ## -- End function
	.p2align	4, 0x90         ## -- Begin function _ZNSt3__119ostreambuf_iteratorIcNS_11char_traitsIcEEEC2ERNS_13basic_ostreamIcS2_EE
__ZNSt3__119ostreambuf_iteratorIcNS_11char_traitsIcEEEC2ERNS_13basic_ostreamIcS2_EE: ## @_ZNSt3__119ostreambuf_iteratorIcNS_11char_traitsIcEEEC2ERNS_13basic_ostreamIcS2_EE
Lfunc_begin50:
	.loc	20 1068 0 is_stmt 1     ## /Applications/Xcode.app/Contents/Developer/Toolchains/XcodeDefault.xctoolchain/usr/bin/../include/c++/v1/iterator:1068:0
	.cfi_startproc
	.cfi_personality 155, ___gxx_personality_v0
	.cfi_lsda 16, Lexception3
## %bb.0:
	pushq	%rbp
	.cfi_def_cfa_offset 16
	.cfi_offset %rbp, -16
	movq	%rsp, %rbp
	.cfi_def_cfa_register %rbp
	subq	$48, %rsp
	movq	%rdi, -8(%rbp)
	movq	%rsi, -16(%rbp)
	movq	-8(%rbp), %rsi
Ltmp225:
	.loc	20 1068 19 prologue_end ## /Applications/Xcode.app/Contents/Developer/Toolchains/XcodeDefault.xctoolchain/usr/bin/../include/c++/v1/iterator:1068:19
	movq	-16(%rbp), %rdi
	movq	(%rdi), %rax
	movq	-24(%rax), %rax
	addq	%rax, %rdi
Ltmp222:
	movq	%rsi, -24(%rbp)         ## 8-byte Spill
	.loc	20 1068 23 is_stmt 0    ## /Applications/Xcode.app/Contents/Developer/Toolchains/XcodeDefault.xctoolchain/usr/bin/../include/c++/v1/iterator:1068:23
	callq	__ZNKSt3__19basic_iosIcNS_11char_traitsIcEEE5rdbufEv
Ltmp223:
	movq	%rax, -32(%rbp)         ## 8-byte Spill
	jmp	LBB50_1
LBB50_1:
	.loc	20 0 23                 ## /Applications/Xcode.app/Contents/Developer/Toolchains/XcodeDefault.xctoolchain/usr/bin/../include/c++/v1/iterator:0:23
	movq	-24(%rbp), %rax         ## 8-byte Reload
	movq	-32(%rbp), %rcx         ## 8-byte Reload
	.loc	20 1068 11              ## /Applications/Xcode.app/Contents/Developer/Toolchains/XcodeDefault.xctoolchain/usr/bin/../include/c++/v1/iterator:1068:11
	movq	%rcx, (%rax)
	.loc	20 1068 33              ## /Applications/Xcode.app/Contents/Developer/Toolchains/XcodeDefault.xctoolchain/usr/bin/../include/c++/v1/iterator:1068:33
	addq	$48, %rsp
	popq	%rbp
	retq
LBB50_2:
Ltmp224:
	.loc	20 1068 23              ## /Applications/Xcode.app/Contents/Developer/Toolchains/XcodeDefault.xctoolchain/usr/bin/../include/c++/v1/iterator:1068:23
	movq	%rax, %rdi
	movq	%rdx, -40(%rbp)         ## 8-byte Spill
	callq	___clang_call_terminate
Ltmp226:
Lfunc_end50:
	.cfi_endproc
	.section	__TEXT,__gcc_except_tab
	.p2align	2
GCC_except_table50:
Lexception3:
	.byte	255                     ## @LPStart Encoding = omit
	.byte	155                     ## @TType Encoding = indirect pcrel sdata4
	.uleb128 Lttbase1-Lttbaseref1
Lttbaseref1:
	.byte	1                       ## Call site Encoding = uleb128
	.uleb128 Lcst_end3-Lcst_begin3
Lcst_begin3:
	.uleb128 Ltmp222-Lfunc_begin50  ## >> Call Site 1 <<
	.uleb128 Ltmp223-Ltmp222        ##   Call between Ltmp222 and Ltmp223
	.uleb128 Ltmp224-Lfunc_begin50  ##     jumps to Ltmp224
	.byte	1                       ##   On action: 1
Lcst_end3:
	.byte	1                       ## >> Action Record 1 <<
                                        ##   Catch TypeInfo 1
	.byte	0                       ##   No further actions
	.p2align	2
                                        ## >> Catch TypeInfos <<
	.long	0                       ## TypeInfo 1
Lttbase1:
	.p2align	2
                                        ## -- End function
	.section	__TEXT,__text,regular,pure_instructions
	.p2align	4, 0x90         ## -- Begin function _ZNKSt3__19basic_iosIcNS_11char_traitsIcEEE5rdbufEv
__ZNKSt3__19basic_iosIcNS_11char_traitsIcEEE5rdbufEv: ## @_ZNKSt3__19basic_iosIcNS_11char_traitsIcEEE5rdbufEv
Lfunc_begin51:
	.loc	1 739 0 is_stmt 1       ## /Applications/Xcode.app/Contents/Developer/Toolchains/XcodeDefault.xctoolchain/usr/bin/../include/c++/v1/ios:739:0
	.cfi_startproc
## %bb.0:
	pushq	%rbp
	.cfi_def_cfa_offset 16
	.cfi_offset %rbp, -16
	movq	%rsp, %rbp
	.cfi_def_cfa_register %rbp
	subq	$16, %rsp
	movq	%rdi, -8(%rbp)
	movq	-8(%rbp), %rdi
Ltmp227:
	.loc	1 740 76 prologue_end   ## /Applications/Xcode.app/Contents/Developer/Toolchains/XcodeDefault.xctoolchain/usr/bin/../include/c++/v1/ios:740:76
	callq	__ZNKSt3__18ios_base5rdbufEv
	.loc	1 740 5 is_stmt 0       ## /Applications/Xcode.app/Contents/Developer/Toolchains/XcodeDefault.xctoolchain/usr/bin/../include/c++/v1/ios:740:5
	addq	$16, %rsp
	popq	%rbp
	retq
Ltmp228:
Lfunc_end51:
	.cfi_endproc
                                        ## -- End function
	.p2align	4, 0x90         ## -- Begin function _ZNKSt3__18ios_base5rdbufEv
__ZNKSt3__18ios_base5rdbufEv:           ## @_ZNKSt3__18ios_base5rdbufEv
Lfunc_begin52:
	.loc	1 349 0 is_stmt 1       ## /Applications/Xcode.app/Contents/Developer/Toolchains/XcodeDefault.xctoolchain/usr/bin/../include/c++/v1/ios:349:0
	.cfi_startproc
## %bb.0:
	pushq	%rbp
	.cfi_def_cfa_offset 16
	.cfi_offset %rbp, -16
	movq	%rsp, %rbp
	.cfi_def_cfa_register %rbp
	movq	%rdi, -8(%rbp)
	movq	-8(%rbp), %rdi
Ltmp229:
	.loc	1 349 111 prologue_end  ## /Applications/Xcode.app/Contents/Developer/Toolchains/XcodeDefault.xctoolchain/usr/bin/../include/c++/v1/ios:349:111
	movq	40(%rdi), %rax
	.loc	1 349 104 is_stmt 0     ## /Applications/Xcode.app/Contents/Developer/Toolchains/XcodeDefault.xctoolchain/usr/bin/../include/c++/v1/ios:349:104
	popq	%rbp
	retq
Ltmp230:
Lfunc_end52:
	.cfi_endproc
                                        ## -- End function
	.globl	__ZNSt3__111char_traitsIcE11eq_int_typeEii ## -- Begin function _ZNSt3__111char_traitsIcE11eq_int_typeEii
	.weak_definition	__ZNSt3__111char_traitsIcE11eq_int_typeEii
	.p2align	4, 0x90
__ZNSt3__111char_traitsIcE11eq_int_typeEii: ## @_ZNSt3__111char_traitsIcE11eq_int_typeEii
Lfunc_begin53:
	.loc	11 238 0 is_stmt 1      ## /Applications/Xcode.app/Contents/Developer/Toolchains/XcodeDefault.xctoolchain/usr/bin/../include/c++/v1/__string:238:0
	.cfi_startproc
## %bb.0:
	pushq	%rbp
	.cfi_def_cfa_offset 16
	.cfi_offset %rbp, -16
	movq	%rsp, %rbp
	.cfi_def_cfa_register %rbp
	movl	%edi, -4(%rbp)
	movl	%esi, -8(%rbp)
Ltmp231:
	.loc	11 238 17 prologue_end  ## /Applications/Xcode.app/Contents/Developer/Toolchains/XcodeDefault.xctoolchain/usr/bin/../include/c++/v1/__string:238:17
	movl	-4(%rbp), %esi
	.loc	11 238 22 is_stmt 0     ## /Applications/Xcode.app/Contents/Developer/Toolchains/XcodeDefault.xctoolchain/usr/bin/../include/c++/v1/__string:238:22
	cmpl	-8(%rbp), %esi
	sete	%al
	.loc	11 238 10               ## /Applications/Xcode.app/Contents/Developer/Toolchains/XcodeDefault.xctoolchain/usr/bin/../include/c++/v1/__string:238:10
	andb	$1, %al
	movzbl	%al, %eax
	popq	%rbp
	retq
Ltmp232:
Lfunc_end53:
	.cfi_endproc
                                        ## -- End function
	.globl	__ZNSt3__111char_traitsIcE3eofEv ## -- Begin function _ZNSt3__111char_traitsIcE3eofEv
	.weak_definition	__ZNSt3__111char_traitsIcE3eofEv
	.p2align	4, 0x90
__ZNSt3__111char_traitsIcE3eofEv:       ## @_ZNSt3__111char_traitsIcE3eofEv
Lfunc_begin54:
	.loc	11 240 0 is_stmt 1      ## /Applications/Xcode.app/Contents/Developer/Toolchains/XcodeDefault.xctoolchain/usr/bin/../include/c++/v1/__string:240:0
	.cfi_startproc
## %bb.0:
	pushq	%rbp
	.cfi_def_cfa_offset 16
	.cfi_offset %rbp, -16
	movq	%rsp, %rbp
	.cfi_def_cfa_register %rbp
Ltmp233:
	.loc	11 240 10 prologue_end  ## /Applications/Xcode.app/Contents/Developer/Toolchains/XcodeDefault.xctoolchain/usr/bin/../include/c++/v1/__string:240:10
	movl	$4294967295, %eax       ## imm = 0xFFFFFFFF
	popq	%rbp
	retq
Ltmp234:
Lfunc_end54:
	.cfi_endproc
                                        ## -- End function
	.p2align	4, 0x90         ## -- Begin function _ZNKSt3__19basic_iosIcNS_11char_traitsIcEEE5widenEc
__ZNKSt3__19basic_iosIcNS_11char_traitsIcEEE5widenEc: ## @_ZNKSt3__19basic_iosIcNS_11char_traitsIcEEE5widenEc
Lfunc_begin55:
	.loc	1 777 0                 ## /Applications/Xcode.app/Contents/Developer/Toolchains/XcodeDefault.xctoolchain/usr/bin/../include/c++/v1/ios:777:0
	.cfi_startproc
	.cfi_personality 155, ___gxx_personality_v0
	.cfi_lsda 16, Lexception4
## %bb.0:
	pushq	%rbp
	.cfi_def_cfa_offset 16
	.cfi_offset %rbp, -16
	movq	%rsp, %rbp
	.cfi_def_cfa_register %rbp
	subq	$64, %rsp
	movb	%sil, %al
	movq	%rdi, -8(%rbp)
	movb	%al, -9(%rbp)
	movq	-8(%rbp), %rsi
	leaq	-24(%rbp), %rdi
	movq	%rdi, -48(%rbp)         ## 8-byte Spill
Ltmp240:
	.loc	1 778 41 prologue_end   ## /Applications/Xcode.app/Contents/Developer/Toolchains/XcodeDefault.xctoolchain/usr/bin/../include/c++/v1/ios:778:41
	callq	__ZNKSt3__18ios_base6getlocEv
Ltmp235:
	movq	-48(%rbp), %rdi         ## 8-byte Reload
	.loc	1 778 12 is_stmt 0      ## /Applications/Xcode.app/Contents/Developer/Toolchains/XcodeDefault.xctoolchain/usr/bin/../include/c++/v1/ios:778:12
	callq	__ZNSt3__1L9use_facetINS_5ctypeIcEEEERKT_RKNS_6localeE
Ltmp236:
	movq	%rax, -56(%rbp)         ## 8-byte Spill
	jmp	LBB55_1
LBB55_1:
	.loc	1 778 57                ## /Applications/Xcode.app/Contents/Developer/Toolchains/XcodeDefault.xctoolchain/usr/bin/../include/c++/v1/ios:778:57
	movsbl	-9(%rbp), %esi
Ltmp237:
	movq	-56(%rbp), %rdi         ## 8-byte Reload
	.loc	1 778 51                ## /Applications/Xcode.app/Contents/Developer/Toolchains/XcodeDefault.xctoolchain/usr/bin/../include/c++/v1/ios:778:51
	callq	__ZNKSt3__15ctypeIcE5widenEc
Ltmp238:
	movb	%al, -57(%rbp)          ## 1-byte Spill
	jmp	LBB55_2
LBB55_2:
	.loc	1 778 5                 ## /Applications/Xcode.app/Contents/Developer/Toolchains/XcodeDefault.xctoolchain/usr/bin/../include/c++/v1/ios:778:5
	leaq	-24(%rbp), %rdi
	callq	__ZNSt3__16localeD1Ev
	movb	-57(%rbp), %al          ## 1-byte Reload
	movsbl	%al, %eax
	addq	$64, %rsp
	popq	%rbp
	retq
LBB55_3:
Ltmp239:
	.loc	1 779 1 is_stmt 1       ## /Applications/Xcode.app/Contents/Developer/Toolchains/XcodeDefault.xctoolchain/usr/bin/../include/c++/v1/ios:779:1
	movl	%edx, %ecx
	movq	%rax, -32(%rbp)
	movl	%ecx, -36(%rbp)
	.loc	1 778 5                 ## /Applications/Xcode.app/Contents/Developer/Toolchains/XcodeDefault.xctoolchain/usr/bin/../include/c++/v1/ios:778:5
	leaq	-24(%rbp), %rdi
	callq	__ZNSt3__16localeD1Ev
## %bb.4:
	movq	-32(%rbp), %rdi
	callq	__Unwind_Resume
	ud2
Ltmp241:
Lfunc_end55:
	.cfi_endproc
	.section	__TEXT,__gcc_except_tab
	.p2align	2
GCC_except_table55:
Lexception4:
	.byte	255                     ## @LPStart Encoding = omit
	.byte	255                     ## @TType Encoding = omit
	.byte	1                       ## Call site Encoding = uleb128
	.uleb128 Lcst_end4-Lcst_begin4
Lcst_begin4:
	.uleb128 Lfunc_begin55-Lfunc_begin55 ## >> Call Site 1 <<
	.uleb128 Ltmp235-Lfunc_begin55  ##   Call between Lfunc_begin55 and Ltmp235
	.byte	0                       ##     has no landing pad
	.byte	0                       ##   On action: cleanup
	.uleb128 Ltmp235-Lfunc_begin55  ## >> Call Site 2 <<
	.uleb128 Ltmp238-Ltmp235        ##   Call between Ltmp235 and Ltmp238
	.uleb128 Ltmp239-Lfunc_begin55  ##     jumps to Ltmp239
	.byte	0                       ##   On action: cleanup
	.uleb128 Ltmp238-Lfunc_begin55  ## >> Call Site 3 <<
	.uleb128 Lfunc_end55-Ltmp238    ##   Call between Ltmp238 and Lfunc_end55
	.byte	0                       ##     has no landing pad
	.byte	0                       ##   On action: cleanup
Lcst_end4:
	.p2align	2
                                        ## -- End function
	.section	__TEXT,__text,regular,pure_instructions
	.p2align	4, 0x90         ## -- Begin function _ZNSt3__1L9use_facetINS_5ctypeIcEEEERKT_RKNS_6localeE
__ZNSt3__1L9use_facetINS_5ctypeIcEEEERKT_RKNS_6localeE: ## @_ZNSt3__1L9use_facetINS_5ctypeIcEEEERKT_RKNS_6localeE
Lfunc_begin56:
	.loc	5 233 0                 ## /Applications/Xcode.app/Contents/Developer/Toolchains/XcodeDefault.xctoolchain/usr/bin/../include/c++/v1/__locale:233:0
	.cfi_startproc
## %bb.0:
	pushq	%rbp
	.cfi_def_cfa_offset 16
	.cfi_offset %rbp, -16
	movq	%rsp, %rbp
	.cfi_def_cfa_register %rbp
	subq	$16, %rsp
	movq	__ZNSt3__15ctypeIcE2idE@GOTPCREL(%rip), %rsi
	movq	%rdi, -8(%rbp)
Ltmp242:
	.loc	5 234 40 prologue_end   ## /Applications/Xcode.app/Contents/Developer/Toolchains/XcodeDefault.xctoolchain/usr/bin/../include/c++/v1/__locale:234:40
	movq	-8(%rbp), %rdi
	.loc	5 234 44 is_stmt 0      ## /Applications/Xcode.app/Contents/Developer/Toolchains/XcodeDefault.xctoolchain/usr/bin/../include/c++/v1/__locale:234:44
	callq	__ZNKSt3__16locale9use_facetERNS0_2idE
	.loc	5 234 5                 ## /Applications/Xcode.app/Contents/Developer/Toolchains/XcodeDefault.xctoolchain/usr/bin/../include/c++/v1/__locale:234:5
	addq	$16, %rsp
	popq	%rbp
	retq
Ltmp243:
Lfunc_end56:
	.cfi_endproc
                                        ## -- End function
	.p2align	4, 0x90         ## -- Begin function _ZNKSt3__15ctypeIcE5widenEc
__ZNKSt3__15ctypeIcE5widenEc:           ## @_ZNKSt3__15ctypeIcE5widenEc
Lfunc_begin57:
	.loc	5 648 0 is_stmt 1       ## /Applications/Xcode.app/Contents/Developer/Toolchains/XcodeDefault.xctoolchain/usr/bin/../include/c++/v1/__locale:648:0
	.cfi_startproc
## %bb.0:
	pushq	%rbp
	.cfi_def_cfa_offset 16
	.cfi_offset %rbp, -16
	movq	%rsp, %rbp
	.cfi_def_cfa_register %rbp
	subq	$16, %rsp
	movb	%sil, %al
	movq	%rdi, -8(%rbp)
	movb	%al, -9(%rbp)
	movq	-8(%rbp), %rdi
Ltmp244:
	.loc	5 649 25 prologue_end   ## /Applications/Xcode.app/Contents/Developer/Toolchains/XcodeDefault.xctoolchain/usr/bin/../include/c++/v1/__locale:649:25
	movb	-9(%rbp), %al
	.loc	5 649 16 is_stmt 0      ## /Applications/Xcode.app/Contents/Developer/Toolchains/XcodeDefault.xctoolchain/usr/bin/../include/c++/v1/__locale:649:16
	movq	(%rdi), %rcx
	movsbl	%al, %esi
	callq	*56(%rcx)
	.loc	5 649 9                 ## /Applications/Xcode.app/Contents/Developer/Toolchains/XcodeDefault.xctoolchain/usr/bin/../include/c++/v1/__locale:649:9
	movsbl	%al, %eax
	addq	$16, %rsp
	popq	%rbp
	retq
Ltmp245:
Lfunc_end57:
	.cfi_endproc
                                        ## -- End function
	.p2align	4, 0x90         ## -- Begin function _ZNSt3__18ios_base8setstateEj
__ZNSt3__18ios_base8setstateEj:         ## @_ZNSt3__18ios_base8setstateEj
Lfunc_begin58:
	.loc	1 547 0 is_stmt 1       ## /Applications/Xcode.app/Contents/Developer/Toolchains/XcodeDefault.xctoolchain/usr/bin/../include/c++/v1/ios:547:0
	.cfi_startproc
## %bb.0:
	pushq	%rbp
	.cfi_def_cfa_offset 16
	.cfi_offset %rbp, -16
	movq	%rsp, %rbp
	.cfi_def_cfa_register %rbp
	subq	$16, %rsp
	movq	%rdi, -8(%rbp)
	movl	%esi, -12(%rbp)
	movq	-8(%rbp), %rdi
Ltmp246:
	.loc	1 548 11 prologue_end   ## /Applications/Xcode.app/Contents/Developer/Toolchains/XcodeDefault.xctoolchain/usr/bin/../include/c++/v1/ios:548:11
	movl	32(%rdi), %esi
	.loc	1 548 22 is_stmt 0      ## /Applications/Xcode.app/Contents/Developer/Toolchains/XcodeDefault.xctoolchain/usr/bin/../include/c++/v1/ios:548:22
	orl	-12(%rbp), %esi
	.loc	1 548 5                 ## /Applications/Xcode.app/Contents/Developer/Toolchains/XcodeDefault.xctoolchain/usr/bin/../include/c++/v1/ios:548:5
	callq	__ZNSt3__18ios_base5clearEj
	.loc	1 549 1 is_stmt 1       ## /Applications/Xcode.app/Contents/Developer/Toolchains/XcodeDefault.xctoolchain/usr/bin/../include/c++/v1/ios:549:1
	addq	$16, %rsp
	popq	%rbp
	retq
Ltmp247:
Lfunc_end58:
	.cfi_endproc
                                        ## -- End function
	.p2align	4, 0x90         ## -- Begin function _ZNSt3__16vectorINS_10shared_ptrI1AEENS_9allocatorIS3_EEEC2Ev
__ZNSt3__16vectorINS_10shared_ptrI1AEENS_9allocatorIS3_EEEC2Ev: ## @_ZNSt3__16vectorINS_10shared_ptrI1AEENS_9allocatorIS3_EEEC2Ev
Lfunc_begin59:
	.loc	23 497 0                ## /Applications/Xcode.app/Contents/Developer/Toolchains/XcodeDefault.xctoolchain/usr/bin/../include/c++/v1/vector:497:0
	.cfi_startproc
## %bb.0:
	pushq	%rbp
	.cfi_def_cfa_offset 16
	.cfi_offset %rbp, -16
	movq	%rsp, %rbp
	.cfi_def_cfa_register %rbp
	subq	$16, %rsp
	movq	%rdi, -8(%rbp)
	movq	-8(%rbp), %rdi
Ltmp248:
	.loc	23 496 5 prologue_end   ## /Applications/Xcode.app/Contents/Developer/Toolchains/XcodeDefault.xctoolchain/usr/bin/../include/c++/v1/vector:496:5
	callq	__ZNSt3__113__vector_baseINS_10shared_ptrI1AEENS_9allocatorIS3_EEEC2Ev
	.loc	23 501 9                ## /Applications/Xcode.app/Contents/Developer/Toolchains/XcodeDefault.xctoolchain/usr/bin/../include/c++/v1/vector:501:9
	addq	$16, %rsp
	popq	%rbp
	retq
Ltmp249:
Lfunc_end59:
	.cfi_endproc
                                        ## -- End function
	.p2align	4, 0x90         ## -- Begin function _ZNSt3__113__vector_baseINS_10shared_ptrI1AEENS_9allocatorIS3_EEEC2Ev
__ZNSt3__113__vector_baseINS_10shared_ptrI1AEENS_9allocatorIS3_EEEC2Ev: ## @_ZNSt3__113__vector_baseINS_10shared_ptrI1AEENS_9allocatorIS3_EEEC2Ev
Lfunc_begin60:
	.loc	23 438 0                ## /Applications/Xcode.app/Contents/Developer/Toolchains/XcodeDefault.xctoolchain/usr/bin/../include/c++/v1/vector:438:0
	.cfi_startproc
	.cfi_personality 155, ___gxx_personality_v0
	.cfi_lsda 16, Lexception5
## %bb.0:
	pushq	%rbp
	.cfi_def_cfa_offset 16
	.cfi_offset %rbp, -16
	movq	%rsp, %rbp
	.cfi_def_cfa_register %rbp
	subq	$32, %rsp
	movq	%rdi, -8(%rbp)
	movq	-8(%rbp), %rdi
Ltmp250:
	movq	%rdi, -24(%rbp)         ## 8-byte Spill
Ltmp255:
	.loc	23 361 5 prologue_end   ## /Applications/Xcode.app/Contents/Developer/Toolchains/XcodeDefault.xctoolchain/usr/bin/../include/c++/v1/vector:361:5
	callq	__ZNSt3__120__vector_base_commonILb1EEC2Ev
Ltmp251:
	jmp	LBB60_1
LBB60_1:
	.loc	23 0 5 is_stmt 0        ## /Applications/Xcode.app/Contents/Developer/Toolchains/XcodeDefault.xctoolchain/usr/bin/../include/c++/v1/vector:0:5
	movq	-24(%rbp), %rax         ## 8-byte Reload
	.loc	23 435 7 is_stmt 1      ## /Applications/Xcode.app/Contents/Developer/Toolchains/XcodeDefault.xctoolchain/usr/bin/../include/c++/v1/vector:435:7
	movq	$0, (%rax)
	.loc	23 436 7                ## /Applications/Xcode.app/Contents/Developer/Toolchains/XcodeDefault.xctoolchain/usr/bin/../include/c++/v1/vector:436:7
	movq	$0, 8(%rax)
	.loc	23 437 7                ## /Applications/Xcode.app/Contents/Developer/Toolchains/XcodeDefault.xctoolchain/usr/bin/../include/c++/v1/vector:437:7
	addq	$16, %rax
	.loc	23 437 18 is_stmt 0     ## /Applications/Xcode.app/Contents/Developer/Toolchains/XcodeDefault.xctoolchain/usr/bin/../include/c++/v1/vector:437:18
	movq	$0, -16(%rbp)
Ltmp252:
	leaq	-16(%rbp), %rsi
	.loc	23 437 7                ## /Applications/Xcode.app/Contents/Developer/Toolchains/XcodeDefault.xctoolchain/usr/bin/../include/c++/v1/vector:437:7
	movq	%rax, %rdi
	callq	__ZNSt3__117__compressed_pairIPNS_10shared_ptrI1AEENS_9allocatorIS3_EEEC1IDnLb1EEEOT_
Ltmp253:
	jmp	LBB60_2
LBB60_2:
	.loc	23 439 1 is_stmt 1      ## /Applications/Xcode.app/Contents/Developer/Toolchains/XcodeDefault.xctoolchain/usr/bin/../include/c++/v1/vector:439:1
	addq	$32, %rsp
	popq	%rbp
	retq
LBB60_3:
Ltmp254:
	.loc	23 361 5                ## /Applications/Xcode.app/Contents/Developer/Toolchains/XcodeDefault.xctoolchain/usr/bin/../include/c++/v1/vector:361:5
	movq	%rax, %rdi
	movq	%rdx, -32(%rbp)         ## 8-byte Spill
	callq	___clang_call_terminate
Ltmp256:
Lfunc_end60:
	.cfi_endproc
	.section	__TEXT,__gcc_except_tab
	.p2align	2
GCC_except_table60:
Lexception5:
	.byte	255                     ## @LPStart Encoding = omit
	.byte	155                     ## @TType Encoding = indirect pcrel sdata4
	.uleb128 Lttbase2-Lttbaseref2
Lttbaseref2:
	.byte	1                       ## Call site Encoding = uleb128
	.uleb128 Lcst_end5-Lcst_begin5
Lcst_begin5:
	.uleb128 Ltmp250-Lfunc_begin60  ## >> Call Site 1 <<
	.uleb128 Ltmp253-Ltmp250        ##   Call between Ltmp250 and Ltmp253
	.uleb128 Ltmp254-Lfunc_begin60  ##     jumps to Ltmp254
	.byte	1                       ##   On action: 1
Lcst_end5:
	.byte	1                       ## >> Action Record 1 <<
                                        ##   Catch TypeInfo 1
	.byte	0                       ##   No further actions
	.p2align	2
                                        ## >> Catch TypeInfos <<
	.long	0                       ## TypeInfo 1
Lttbase2:
	.p2align	2
                                        ## -- End function
	.section	__TEXT,__text,regular,pure_instructions
	.p2align	4, 0x90         ## -- Begin function _ZNSt3__120__vector_base_commonILb1EEC2Ev
__ZNSt3__120__vector_base_commonILb1EEC2Ev: ## @_ZNSt3__120__vector_base_commonILb1EEC2Ev
Lfunc_begin61:
	.loc	23 304 0                ## /Applications/Xcode.app/Contents/Developer/Toolchains/XcodeDefault.xctoolchain/usr/bin/../include/c++/v1/vector:304:0
	.cfi_startproc
## %bb.0:
	pushq	%rbp
	.cfi_def_cfa_offset 16
	.cfi_offset %rbp, -16
	movq	%rsp, %rbp
	.cfi_def_cfa_register %rbp
	movq	%rdi, -8(%rbp)
Ltmp257:
	.loc	23 304 107 prologue_end ## /Applications/Xcode.app/Contents/Developer/Toolchains/XcodeDefault.xctoolchain/usr/bin/../include/c++/v1/vector:304:107
	popq	%rbp
	retq
Ltmp258:
Lfunc_end61:
	.cfi_endproc
                                        ## -- End function
	.p2align	4, 0x90         ## -- Begin function _ZNSt3__117__compressed_pairIPNS_10shared_ptrI1AEENS_9allocatorIS3_EEEC1IDnLb1EEEOT_
__ZNSt3__117__compressed_pairIPNS_10shared_ptrI1AEENS_9allocatorIS3_EEEC1IDnLb1EEEOT_: ## @_ZNSt3__117__compressed_pairIPNS_10shared_ptrI1AEENS_9allocatorIS3_EEEC1IDnLb1EEEOT_
Lfunc_begin62:
	.loc	7 2241 0                ## /Applications/Xcode.app/Contents/Developer/Toolchains/XcodeDefault.xctoolchain/usr/bin/../include/c++/v1/memory:2241:0
	.cfi_startproc
## %bb.0:
	pushq	%rbp
	.cfi_def_cfa_offset 16
	.cfi_offset %rbp, -16
	movq	%rsp, %rbp
	.cfi_def_cfa_register %rbp
	subq	$16, %rsp
	movq	%rdi, -8(%rbp)
	movq	%rsi, -16(%rbp)
	movq	-8(%rbp), %rdi
Ltmp259:
	.loc	7 2241 50 prologue_end  ## /Applications/Xcode.app/Contents/Developer/Toolchains/XcodeDefault.xctoolchain/usr/bin/../include/c++/v1/memory:2241:50
	movq	-16(%rbp), %rsi
	callq	__ZNSt3__117__compressed_pairIPNS_10shared_ptrI1AEENS_9allocatorIS3_EEEC2IDnLb1EEEOT_
	.loc	7 2241 51 is_stmt 0     ## /Applications/Xcode.app/Contents/Developer/Toolchains/XcodeDefault.xctoolchain/usr/bin/../include/c++/v1/memory:2241:51
	addq	$16, %rsp
	popq	%rbp
	retq
Ltmp260:
Lfunc_end62:
	.cfi_endproc
                                        ## -- End function
	.p2align	4, 0x90         ## -- Begin function _ZNSt3__117__compressed_pairIPNS_10shared_ptrI1AEENS_9allocatorIS3_EEEC2IDnLb1EEEOT_
__ZNSt3__117__compressed_pairIPNS_10shared_ptrI1AEENS_9allocatorIS3_EEEC2IDnLb1EEEOT_: ## @_ZNSt3__117__compressed_pairIPNS_10shared_ptrI1AEENS_9allocatorIS3_EEEC2IDnLb1EEEOT_
Lfunc_begin63:
	.loc	7 2241 0 is_stmt 1      ## /Applications/Xcode.app/Contents/Developer/Toolchains/XcodeDefault.xctoolchain/usr/bin/../include/c++/v1/memory:2241:0
	.cfi_startproc
## %bb.0:
	pushq	%rbp
	.cfi_def_cfa_offset 16
	.cfi_offset %rbp, -16
	movq	%rsp, %rbp
	.cfi_def_cfa_register %rbp
	subq	$32, %rsp
	movq	%rdi, -8(%rbp)
	movq	%rsi, -16(%rbp)
	movq	-8(%rbp), %rsi
Ltmp261:
	.loc	7 2241 50 prologue_end  ## /Applications/Xcode.app/Contents/Developer/Toolchains/XcodeDefault.xctoolchain/usr/bin/../include/c++/v1/memory:2241:50
	movq	%rsi, %rdi
	.loc	7 2241 34 is_stmt 0     ## /Applications/Xcode.app/Contents/Developer/Toolchains/XcodeDefault.xctoolchain/usr/bin/../include/c++/v1/memory:2241:34
	movq	-16(%rbp), %rax
	movq	%rdi, -24(%rbp)         ## 8-byte Spill
	.loc	7 2241 16               ## /Applications/Xcode.app/Contents/Developer/Toolchains/XcodeDefault.xctoolchain/usr/bin/../include/c++/v1/memory:2241:16
	movq	%rax, %rdi
	movq	%rsi, -32(%rbp)         ## 8-byte Spill
	callq	__ZNSt3__1L7forwardIDnEEOT_RNS_16remove_referenceIS1_E4typeE
	movq	-24(%rbp), %rdi         ## 8-byte Reload
	.loc	7 2241 9                ## /Applications/Xcode.app/Contents/Developer/Toolchains/XcodeDefault.xctoolchain/usr/bin/../include/c++/v1/memory:2241:9
	movq	%rax, %rsi
	callq	__ZNSt3__122__compressed_pair_elemIPNS_10shared_ptrI1AEELi0ELb0EEC2IDnvEEOT_
	movq	-32(%rbp), %rax         ## 8-byte Reload
	.loc	7 2241 41               ## /Applications/Xcode.app/Contents/Developer/Toolchains/XcodeDefault.xctoolchain/usr/bin/../include/c++/v1/memory:2241:41
	movq	%rax, %rdi
	callq	__ZNSt3__122__compressed_pair_elemINS_9allocatorINS_10shared_ptrI1AEEEELi1ELb1EEC2Ev
	.loc	7 2241 51               ## /Applications/Xcode.app/Contents/Developer/Toolchains/XcodeDefault.xctoolchain/usr/bin/../include/c++/v1/memory:2241:51
	addq	$32, %rsp
	popq	%rbp
	retq
Ltmp262:
Lfunc_end63:
	.cfi_endproc
                                        ## -- End function
	.p2align	4, 0x90         ## -- Begin function _ZNSt3__1L7forwardIDnEEOT_RNS_16remove_referenceIS1_E4typeE
__ZNSt3__1L7forwardIDnEEOT_RNS_16remove_referenceIS1_E4typeE: ## @_ZNSt3__1L7forwardIDnEEOT_RNS_16remove_referenceIS1_E4typeE
Lfunc_begin64:
	.loc	8 2320 0 is_stmt 1      ## /Applications/Xcode.app/Contents/Developer/Toolchains/XcodeDefault.xctoolchain/usr/bin/../include/c++/v1/type_traits:2320:0
	.cfi_startproc
## %bb.0:
	pushq	%rbp
	.cfi_def_cfa_offset 16
	.cfi_offset %rbp, -16
	movq	%rsp, %rbp
	.cfi_def_cfa_register %rbp
	movq	%rdi, -8(%rbp)
Ltmp263:
	.loc	8 2321 31 prologue_end  ## /Applications/Xcode.app/Contents/Developer/Toolchains/XcodeDefault.xctoolchain/usr/bin/../include/c++/v1/type_traits:2321:31
	movq	-8(%rbp), %rax
	.loc	8 2321 5 is_stmt 0      ## /Applications/Xcode.app/Contents/Developer/Toolchains/XcodeDefault.xctoolchain/usr/bin/../include/c++/v1/type_traits:2321:5
	popq	%rbp
	retq
Ltmp264:
Lfunc_end64:
	.cfi_endproc
                                        ## -- End function
	.p2align	4, 0x90         ## -- Begin function _ZNSt3__122__compressed_pair_elemIPNS_10shared_ptrI1AEELi0ELb0EEC2IDnvEEOT_
__ZNSt3__122__compressed_pair_elemIPNS_10shared_ptrI1AEELi0ELb0EEC2IDnvEEOT_: ## @_ZNSt3__122__compressed_pair_elemIPNS_10shared_ptrI1AEELi0ELb0EEC2IDnvEEOT_
Lfunc_begin65:
	.loc	7 2149 0 is_stmt 1      ## /Applications/Xcode.app/Contents/Developer/Toolchains/XcodeDefault.xctoolchain/usr/bin/../include/c++/v1/memory:2149:0
	.cfi_startproc
## %bb.0:
	pushq	%rbp
	.cfi_def_cfa_offset 16
	.cfi_offset %rbp, -16
	movq	%rsp, %rbp
	.cfi_def_cfa_register %rbp
	subq	$32, %rsp
	movq	%rdi, -8(%rbp)
	movq	%rsi, -16(%rbp)
	movq	-8(%rbp), %rsi
Ltmp265:
	.loc	7 2148 41 prologue_end  ## /Applications/Xcode.app/Contents/Developer/Toolchains/XcodeDefault.xctoolchain/usr/bin/../include/c++/v1/memory:2148:41
	movq	-16(%rbp), %rdi
	movq	%rsi, -24(%rbp)         ## 8-byte Spill
	.loc	7 2148 18 is_stmt 0     ## /Applications/Xcode.app/Contents/Developer/Toolchains/XcodeDefault.xctoolchain/usr/bin/../include/c++/v1/memory:2148:18
	callq	__ZNSt3__1L7forwardIDnEEOT_RNS_16remove_referenceIS1_E4typeE
	movq	-24(%rbp), %rsi         ## 8-byte Reload
	.loc	7 2148 9                ## /Applications/Xcode.app/Contents/Developer/Toolchains/XcodeDefault.xctoolchain/usr/bin/../include/c++/v1/memory:2148:9
	movq	$0, (%rsi)
	movq	%rax, -32(%rbp)         ## 8-byte Spill
	.loc	7 2150 5 is_stmt 1      ## /Applications/Xcode.app/Contents/Developer/Toolchains/XcodeDefault.xctoolchain/usr/bin/../include/c++/v1/memory:2150:5
	addq	$32, %rsp
	popq	%rbp
	retq
Ltmp266:
Lfunc_end65:
	.cfi_endproc
                                        ## -- End function
	.p2align	4, 0x90         ## -- Begin function _ZNSt3__122__compressed_pair_elemINS_9allocatorINS_10shared_ptrI1AEEEELi1ELb1EEC2Ev
__ZNSt3__122__compressed_pair_elemINS_9allocatorINS_10shared_ptrI1AEEEELi1ELb1EEC2Ev: ## @_ZNSt3__122__compressed_pair_elemINS_9allocatorINS_10shared_ptrI1AEEEELi1ELb1EEC2Ev
Lfunc_begin66:
	.loc	7 2179 0                ## /Applications/Xcode.app/Contents/Developer/Toolchains/XcodeDefault.xctoolchain/usr/bin/../include/c++/v1/memory:2179:0
	.cfi_startproc
## %bb.0:
	pushq	%rbp
	.cfi_def_cfa_offset 16
	.cfi_offset %rbp, -16
	movq	%rsp, %rbp
	.cfi_def_cfa_register %rbp
	subq	$16, %rsp
	movq	%rdi, -8(%rbp)
	movq	-8(%rbp), %rdi
Ltmp267:
	.loc	7 2179 91 prologue_end  ## /Applications/Xcode.app/Contents/Developer/Toolchains/XcodeDefault.xctoolchain/usr/bin/../include/c++/v1/memory:2179:91
	callq	__ZNSt3__19allocatorINS_10shared_ptrI1AEEEC2Ev
	.loc	7 2179 124 is_stmt 0    ## /Applications/Xcode.app/Contents/Developer/Toolchains/XcodeDefault.xctoolchain/usr/bin/../include/c++/v1/memory:2179:124
	addq	$16, %rsp
	popq	%rbp
	retq
Ltmp268:
Lfunc_end66:
	.cfi_endproc
                                        ## -- End function
	.p2align	4, 0x90         ## -- Begin function _ZNSt3__19allocatorINS_10shared_ptrI1AEEEC2Ev
__ZNSt3__19allocatorINS_10shared_ptrI1AEEEC2Ev: ## @_ZNSt3__19allocatorINS_10shared_ptrI1AEEEC2Ev
Lfunc_begin67:
	.loc	7 1798 0 is_stmt 1      ## /Applications/Xcode.app/Contents/Developer/Toolchains/XcodeDefault.xctoolchain/usr/bin/../include/c++/v1/memory:1798:0
	.cfi_startproc
## %bb.0:
	pushq	%rbp
	.cfi_def_cfa_offset 16
	.cfi_offset %rbp, -16
	movq	%rsp, %rbp
	.cfi_def_cfa_register %rbp
	movq	%rdi, -8(%rbp)
Ltmp269:
	.loc	7 1798 27 prologue_end  ## /Applications/Xcode.app/Contents/Developer/Toolchains/XcodeDefault.xctoolchain/usr/bin/../include/c++/v1/memory:1798:27
	popq	%rbp
	retq
Ltmp270:
Lfunc_end67:
	.cfi_endproc
                                        ## -- End function
	.p2align	4, 0x90         ## -- Begin function _ZNSt3__16vectorINS_10shared_ptrI1AEENS_9allocatorIS3_EEED2Ev
__ZNSt3__16vectorINS_10shared_ptrI1AEENS_9allocatorIS3_EEED2Ev: ## @_ZNSt3__16vectorINS_10shared_ptrI1AEENS_9allocatorIS3_EEED2Ev
Lfunc_begin68:
	.loc	23 551 0                ## /Applications/Xcode.app/Contents/Developer/Toolchains/XcodeDefault.xctoolchain/usr/bin/../include/c++/v1/vector:551:0
	.cfi_startproc
	.cfi_personality 155, ___gxx_personality_v0
	.cfi_lsda 16, Lexception6
## %bb.0:
	pushq	%rbp
	.cfi_def_cfa_offset 16
	.cfi_offset %rbp, -16
	movq	%rsp, %rbp
	.cfi_def_cfa_register %rbp
	subq	$32, %rsp
	movq	%rdi, -8(%rbp)
	movq	-8(%rbp), %rdi
Ltmp271:
	movq	%rdi, -32(%rbp)         ## 8-byte Spill
Ltmp274:
	.loc	23 552 9 prologue_end   ## /Applications/Xcode.app/Contents/Developer/Toolchains/XcodeDefault.xctoolchain/usr/bin/../include/c++/v1/vector:552:9
	callq	__ZNKSt3__16vectorINS_10shared_ptrI1AEENS_9allocatorIS3_EEE17__annotate_deleteEv
Ltmp272:
	jmp	LBB68_1
LBB68_1:
	.loc	23 0 9 is_stmt 0        ## /Applications/Xcode.app/Contents/Developer/Toolchains/XcodeDefault.xctoolchain/usr/bin/../include/c++/v1/vector:0:9
	movq	-32(%rbp), %rax         ## 8-byte Reload
	.loc	23 556 5 is_stmt 1      ## /Applications/Xcode.app/Contents/Developer/Toolchains/XcodeDefault.xctoolchain/usr/bin/../include/c++/v1/vector:556:5
	movq	%rax, %rdi
	callq	__ZNSt3__113__vector_baseINS_10shared_ptrI1AEENS_9allocatorIS3_EEED2Ev
Ltmp275:
	.loc	23 556 5 is_stmt 0      ## /Applications/Xcode.app/Contents/Developer/Toolchains/XcodeDefault.xctoolchain/usr/bin/../include/c++/v1/vector:556:5
	addq	$32, %rsp
	popq	%rbp
	retq
LBB68_2:
Ltmp273:
Ltmp276:
	.loc	23 556 5                ## /Applications/Xcode.app/Contents/Developer/Toolchains/XcodeDefault.xctoolchain/usr/bin/../include/c++/v1/vector:556:5
	movl	%edx, %ecx
	movq	%rax, -16(%rbp)
	movl	%ecx, -20(%rbp)
	movq	-32(%rbp), %rax         ## 8-byte Reload
	movq	%rax, %rdi
	callq	__ZNSt3__113__vector_baseINS_10shared_ptrI1AEENS_9allocatorIS3_EEED2Ev
## %bb.3:
	movq	-16(%rbp), %rdi
	callq	___clang_call_terminate
Ltmp277:
Lfunc_end68:
	.cfi_endproc
	.section	__TEXT,__gcc_except_tab
	.p2align	2
GCC_except_table68:
Lexception6:
	.byte	255                     ## @LPStart Encoding = omit
	.byte	155                     ## @TType Encoding = indirect pcrel sdata4
	.uleb128 Lttbase3-Lttbaseref3
Lttbaseref3:
	.byte	1                       ## Call site Encoding = uleb128
	.uleb128 Lcst_end6-Lcst_begin6
Lcst_begin6:
	.uleb128 Ltmp271-Lfunc_begin68  ## >> Call Site 1 <<
	.uleb128 Ltmp272-Ltmp271        ##   Call between Ltmp271 and Ltmp272
	.uleb128 Ltmp273-Lfunc_begin68  ##     jumps to Ltmp273
	.byte	1                       ##   On action: 1
Lcst_end6:
	.byte	1                       ## >> Action Record 1 <<
                                        ##   Catch TypeInfo 1
	.byte	0                       ##   No further actions
	.p2align	2
                                        ## >> Catch TypeInfos <<
	.long	0                       ## TypeInfo 1
Lttbase3:
	.p2align	2
                                        ## -- End function
	.section	__TEXT,__text,regular,pure_instructions
	.p2align	4, 0x90         ## -- Begin function _ZNKSt3__16vectorINS_10shared_ptrI1AEENS_9allocatorIS3_EEE17__annotate_deleteEv
__ZNKSt3__16vectorINS_10shared_ptrI1AEENS_9allocatorIS3_EEE17__annotate_deleteEv: ## @_ZNKSt3__16vectorINS_10shared_ptrI1AEENS_9allocatorIS3_EEE17__annotate_deleteEv
Lfunc_begin69:
	.loc	23 872 0 is_stmt 1      ## /Applications/Xcode.app/Contents/Developer/Toolchains/XcodeDefault.xctoolchain/usr/bin/../include/c++/v1/vector:872:0
	.cfi_startproc
## %bb.0:
	pushq	%rbp
	.cfi_def_cfa_offset 16
	.cfi_offset %rbp, -16
	movq	%rsp, %rbp
	.cfi_def_cfa_register %rbp
	subq	$80, %rsp
	movq	%rdi, -8(%rbp)
	movq	-8(%rbp), %rdi
	movq	%rdi, -16(%rbp)         ## 8-byte Spill
Ltmp278:
	.loc	23 873 39 prologue_end  ## /Applications/Xcode.app/Contents/Developer/Toolchains/XcodeDefault.xctoolchain/usr/bin/../include/c++/v1/vector:873:39
	callq	__ZNKSt3__16vectorINS_10shared_ptrI1AEENS_9allocatorIS3_EEE4dataEv
	movq	-16(%rbp), %rdi         ## 8-byte Reload
	movq	%rax, -24(%rbp)         ## 8-byte Spill
	.loc	23 873 47 is_stmt 0     ## /Applications/Xcode.app/Contents/Developer/Toolchains/XcodeDefault.xctoolchain/usr/bin/../include/c++/v1/vector:873:47
	callq	__ZNKSt3__16vectorINS_10shared_ptrI1AEENS_9allocatorIS3_EEE4dataEv
	movq	-16(%rbp), %rdi         ## 8-byte Reload
	movq	%rax, -32(%rbp)         ## 8-byte Spill
	.loc	23 873 56               ## /Applications/Xcode.app/Contents/Developer/Toolchains/XcodeDefault.xctoolchain/usr/bin/../include/c++/v1/vector:873:56
	callq	__ZNKSt3__16vectorINS_10shared_ptrI1AEENS_9allocatorIS3_EEE8capacityEv
	.loc	23 873 54               ## /Applications/Xcode.app/Contents/Developer/Toolchains/XcodeDefault.xctoolchain/usr/bin/../include/c++/v1/vector:873:54
	shlq	$4, %rax
	movq	-32(%rbp), %rdi         ## 8-byte Reload
	addq	%rax, %rdi
	movq	-16(%rbp), %rax         ## 8-byte Reload
	movq	%rdi, -40(%rbp)         ## 8-byte Spill
	.loc	23 874 39 is_stmt 1     ## /Applications/Xcode.app/Contents/Developer/Toolchains/XcodeDefault.xctoolchain/usr/bin/../include/c++/v1/vector:874:39
	movq	%rax, %rdi
	callq	__ZNKSt3__16vectorINS_10shared_ptrI1AEENS_9allocatorIS3_EEE4dataEv
	movq	-16(%rbp), %rdi         ## 8-byte Reload
	movq	%rax, -48(%rbp)         ## 8-byte Spill
	.loc	23 874 48 is_stmt 0     ## /Applications/Xcode.app/Contents/Developer/Toolchains/XcodeDefault.xctoolchain/usr/bin/../include/c++/v1/vector:874:48
	callq	__ZNKSt3__16vectorINS_10shared_ptrI1AEENS_9allocatorIS3_EEE4sizeEv
	.loc	23 874 46               ## /Applications/Xcode.app/Contents/Developer/Toolchains/XcodeDefault.xctoolchain/usr/bin/../include/c++/v1/vector:874:46
	shlq	$4, %rax
	movq	-48(%rbp), %rdi         ## 8-byte Reload
	addq	%rax, %rdi
	movq	-16(%rbp), %rax         ## 8-byte Reload
	movq	%rdi, -56(%rbp)         ## 8-byte Spill
	.loc	23 874 56               ## /Applications/Xcode.app/Contents/Developer/Toolchains/XcodeDefault.xctoolchain/usr/bin/../include/c++/v1/vector:874:56
	movq	%rax, %rdi
	callq	__ZNKSt3__16vectorINS_10shared_ptrI1AEENS_9allocatorIS3_EEE4dataEv
	movq	-16(%rbp), %rdi         ## 8-byte Reload
	movq	%rax, -64(%rbp)         ## 8-byte Spill
	.loc	23 874 65               ## /Applications/Xcode.app/Contents/Developer/Toolchains/XcodeDefault.xctoolchain/usr/bin/../include/c++/v1/vector:874:65
	callq	__ZNKSt3__16vectorINS_10shared_ptrI1AEENS_9allocatorIS3_EEE8capacityEv
	.loc	23 874 63               ## /Applications/Xcode.app/Contents/Developer/Toolchains/XcodeDefault.xctoolchain/usr/bin/../include/c++/v1/vector:874:63
	shlq	$4, %rax
	movq	-64(%rbp), %rdi         ## 8-byte Reload
	addq	%rax, %rdi
	movq	-16(%rbp), %rax         ## 8-byte Reload
	movq	%rdi, -72(%rbp)         ## 8-byte Spill
	.loc	23 873 7 is_stmt 1      ## /Applications/Xcode.app/Contents/Developer/Toolchains/XcodeDefault.xctoolchain/usr/bin/../include/c++/v1/vector:873:7
	movq	%rax, %rdi
	movq	-24(%rbp), %rsi         ## 8-byte Reload
	movq	-40(%rbp), %rdx         ## 8-byte Reload
	movq	-56(%rbp), %rcx         ## 8-byte Reload
	movq	-72(%rbp), %r8          ## 8-byte Reload
	callq	__ZNKSt3__16vectorINS_10shared_ptrI1AEENS_9allocatorIS3_EEE31__annotate_contiguous_containerEPKvS8_S8_S8_
	.loc	23 875 5                ## /Applications/Xcode.app/Contents/Developer/Toolchains/XcodeDefault.xctoolchain/usr/bin/../include/c++/v1/vector:875:5
	addq	$80, %rsp
	popq	%rbp
	retq
Ltmp279:
Lfunc_end69:
	.cfi_endproc
                                        ## -- End function
	.globl	__ZNSt3__113__vector_baseINS_10shared_ptrI1AEENS_9allocatorIS3_EEED2Ev ## -- Begin function _ZNSt3__113__vector_baseINS_10shared_ptrI1AEENS_9allocatorIS3_EEED2Ev
	.weak_def_can_be_hidden	__ZNSt3__113__vector_baseINS_10shared_ptrI1AEENS_9allocatorIS3_EEED2Ev
	.p2align	4, 0x90
__ZNSt3__113__vector_baseINS_10shared_ptrI1AEENS_9allocatorIS3_EEED2Ev: ## @_ZNSt3__113__vector_baseINS_10shared_ptrI1AEENS_9allocatorIS3_EEED2Ev
Lfunc_begin70:
	.loc	23 461 0                ## /Applications/Xcode.app/Contents/Developer/Toolchains/XcodeDefault.xctoolchain/usr/bin/../include/c++/v1/vector:461:0
	.cfi_startproc
## %bb.0:
	pushq	%rbp
	.cfi_def_cfa_offset 16
	.cfi_offset %rbp, -16
	movq	%rsp, %rbp
	.cfi_def_cfa_register %rbp
	subq	$32, %rsp
	movq	%rdi, -8(%rbp)
	movq	-8(%rbp), %rdi
Ltmp280:
	.loc	23 462 18 prologue_end  ## /Applications/Xcode.app/Contents/Developer/Toolchains/XcodeDefault.xctoolchain/usr/bin/../include/c++/v1/vector:462:18
	cmpq	$0, (%rdi)
	movq	%rdi, -16(%rbp)         ## 8-byte Spill
Ltmp281:
	.loc	23 462 9 is_stmt 0      ## /Applications/Xcode.app/Contents/Developer/Toolchains/XcodeDefault.xctoolchain/usr/bin/../include/c++/v1/vector:462:9
	je	LBB70_2
## %bb.1:
	.loc	23 0 9                  ## /Applications/Xcode.app/Contents/Developer/Toolchains/XcodeDefault.xctoolchain/usr/bin/../include/c++/v1/vector:0:9
	movq	-16(%rbp), %rdi         ## 8-byte Reload
Ltmp282:
	.loc	23 464 9 is_stmt 1      ## /Applications/Xcode.app/Contents/Developer/Toolchains/XcodeDefault.xctoolchain/usr/bin/../include/c++/v1/vector:464:9
	callq	__ZNSt3__113__vector_baseINS_10shared_ptrI1AEENS_9allocatorIS3_EEE5clearEv
	movq	-16(%rbp), %rdi         ## 8-byte Reload
	.loc	23 465 36               ## /Applications/Xcode.app/Contents/Developer/Toolchains/XcodeDefault.xctoolchain/usr/bin/../include/c++/v1/vector:465:36
	callq	__ZNSt3__113__vector_baseINS_10shared_ptrI1AEENS_9allocatorIS3_EEE7__allocEv
	movq	-16(%rbp), %rdi         ## 8-byte Reload
	.loc	23 465 47 is_stmt 0     ## /Applications/Xcode.app/Contents/Developer/Toolchains/XcodeDefault.xctoolchain/usr/bin/../include/c++/v1/vector:465:47
	movq	(%rdi), %rsi
	movq	%rax, -24(%rbp)         ## 8-byte Spill
	movq	%rsi, -32(%rbp)         ## 8-byte Spill
	.loc	23 465 57               ## /Applications/Xcode.app/Contents/Developer/Toolchains/XcodeDefault.xctoolchain/usr/bin/../include/c++/v1/vector:465:57
	callq	__ZNKSt3__113__vector_baseINS_10shared_ptrI1AEENS_9allocatorIS3_EEE8capacityEv
	movq	-24(%rbp), %rdi         ## 8-byte Reload
	movq	-32(%rbp), %rsi         ## 8-byte Reload
	.loc	23 465 9                ## /Applications/Xcode.app/Contents/Developer/Toolchains/XcodeDefault.xctoolchain/usr/bin/../include/c++/v1/vector:465:9
	movq	%rax, %rdx
	callq	__ZNSt3__116allocator_traitsINS_9allocatorINS_10shared_ptrI1AEEEEE10deallocateERS5_PS4_m
Ltmp283:
LBB70_2:
	.loc	23 467 1 is_stmt 1      ## /Applications/Xcode.app/Contents/Developer/Toolchains/XcodeDefault.xctoolchain/usr/bin/../include/c++/v1/vector:467:1
	addq	$32, %rsp
	popq	%rbp
	retq
Ltmp284:
Lfunc_end70:
	.cfi_endproc
                                        ## -- End function
	.p2align	4, 0x90         ## -- Begin function _ZNKSt3__16vectorINS_10shared_ptrI1AEENS_9allocatorIS3_EEE31__annotate_contiguous_containerEPKvS8_S8_S8_
__ZNKSt3__16vectorINS_10shared_ptrI1AEENS_9allocatorIS3_EEE31__annotate_contiguous_containerEPKvS8_S8_S8_: ## @_ZNKSt3__16vectorINS_10shared_ptrI1AEENS_9allocatorIS3_EEE31__annotate_contiguous_containerEPKvS8_S8_S8_
Lfunc_begin71:
	.loc	23 863 0                ## /Applications/Xcode.app/Contents/Developer/Toolchains/XcodeDefault.xctoolchain/usr/bin/../include/c++/v1/vector:863:0
	.cfi_startproc
## %bb.0:
	pushq	%rbp
	.cfi_def_cfa_offset 16
	.cfi_offset %rbp, -16
	movq	%rsp, %rbp
	.cfi_def_cfa_register %rbp
	movq	%rdi, -8(%rbp)
	movq	%rsi, -16(%rbp)
	movq	%rdx, -24(%rbp)
	movq	%rcx, -32(%rbp)
	movq	%r8, -40(%rbp)
Ltmp285:
	.loc	23 863 62 prologue_end  ## /Applications/Xcode.app/Contents/Developer/Toolchains/XcodeDefault.xctoolchain/usr/bin/../include/c++/v1/vector:863:62
	popq	%rbp
	retq
Ltmp286:
Lfunc_end71:
	.cfi_endproc
                                        ## -- End function
	.p2align	4, 0x90         ## -- Begin function _ZNKSt3__16vectorINS_10shared_ptrI1AEENS_9allocatorIS3_EEE4dataEv
__ZNKSt3__16vectorINS_10shared_ptrI1AEENS_9allocatorIS3_EEE4dataEv: ## @_ZNKSt3__16vectorINS_10shared_ptrI1AEENS_9allocatorIS3_EEE4dataEv
Lfunc_begin72:
	.loc	23 699 0                ## /Applications/Xcode.app/Contents/Developer/Toolchains/XcodeDefault.xctoolchain/usr/bin/../include/c++/v1/vector:699:0
	.cfi_startproc
## %bb.0:
	pushq	%rbp
	.cfi_def_cfa_offset 16
	.cfi_offset %rbp, -16
	movq	%rsp, %rbp
	.cfi_def_cfa_register %rbp
	subq	$16, %rsp
	movq	%rdi, -8(%rbp)
	movq	-8(%rbp), %rdi
Ltmp287:
	.loc	23 699 50 prologue_end  ## /Applications/Xcode.app/Contents/Developer/Toolchains/XcodeDefault.xctoolchain/usr/bin/../include/c++/v1/vector:699:50
	movq	(%rdi), %rdi
	.loc	23 699 17 is_stmt 0     ## /Applications/Xcode.app/Contents/Developer/Toolchains/XcodeDefault.xctoolchain/usr/bin/../include/c++/v1/vector:699:17
	callq	__ZNSt3__1L16__to_raw_pointerINS_10shared_ptrI1AEEEEPT_S5_
	.loc	23 699 10               ## /Applications/Xcode.app/Contents/Developer/Toolchains/XcodeDefault.xctoolchain/usr/bin/../include/c++/v1/vector:699:10
	addq	$16, %rsp
	popq	%rbp
	retq
Ltmp288:
Lfunc_end72:
	.cfi_endproc
                                        ## -- End function
	.p2align	4, 0x90         ## -- Begin function _ZNKSt3__16vectorINS_10shared_ptrI1AEENS_9allocatorIS3_EEE8capacityEv
__ZNKSt3__16vectorINS_10shared_ptrI1AEENS_9allocatorIS3_EEE8capacityEv: ## @_ZNKSt3__16vectorINS_10shared_ptrI1AEENS_9allocatorIS3_EEE8capacityEv
Lfunc_begin73:
	.loc	23 660 0 is_stmt 1      ## /Applications/Xcode.app/Contents/Developer/Toolchains/XcodeDefault.xctoolchain/usr/bin/../include/c++/v1/vector:660:0
	.cfi_startproc
## %bb.0:
	pushq	%rbp
	.cfi_def_cfa_offset 16
	.cfi_offset %rbp, -16
	movq	%rsp, %rbp
	.cfi_def_cfa_register %rbp
	subq	$16, %rsp
	movq	%rdi, -8(%rbp)
	movq	-8(%rbp), %rdi
Ltmp289:
	.loc	23 660 25 prologue_end  ## /Applications/Xcode.app/Contents/Developer/Toolchains/XcodeDefault.xctoolchain/usr/bin/../include/c++/v1/vector:660:25
	callq	__ZNKSt3__113__vector_baseINS_10shared_ptrI1AEENS_9allocatorIS3_EEE8capacityEv
	.loc	23 660 10 is_stmt 0     ## /Applications/Xcode.app/Contents/Developer/Toolchains/XcodeDefault.xctoolchain/usr/bin/../include/c++/v1/vector:660:10
	addq	$16, %rsp
	popq	%rbp
	retq
Ltmp290:
Lfunc_end73:
	.cfi_endproc
                                        ## -- End function
	.p2align	4, 0x90         ## -- Begin function _ZNKSt3__16vectorINS_10shared_ptrI1AEENS_9allocatorIS3_EEE4sizeEv
__ZNKSt3__16vectorINS_10shared_ptrI1AEENS_9allocatorIS3_EEE4sizeEv: ## @_ZNKSt3__16vectorINS_10shared_ptrI1AEENS_9allocatorIS3_EEE4sizeEv
Lfunc_begin74:
	.loc	23 657 0 is_stmt 1      ## /Applications/Xcode.app/Contents/Developer/Toolchains/XcodeDefault.xctoolchain/usr/bin/../include/c++/v1/vector:657:0
	.cfi_startproc
## %bb.0:
	pushq	%rbp
	.cfi_def_cfa_offset 16
	.cfi_offset %rbp, -16
	movq	%rsp, %rbp
	.cfi_def_cfa_register %rbp
	movq	%rdi, -8(%rbp)
	movq	-8(%rbp), %rdi
Ltmp291:
	.loc	23 657 46 prologue_end  ## /Applications/Xcode.app/Contents/Developer/Toolchains/XcodeDefault.xctoolchain/usr/bin/../include/c++/v1/vector:657:46
	movq	8(%rdi), %rax
	.loc	23 657 61 is_stmt 0     ## /Applications/Xcode.app/Contents/Developer/Toolchains/XcodeDefault.xctoolchain/usr/bin/../include/c++/v1/vector:657:61
	movq	(%rdi), %rdi
	.loc	23 657 53               ## /Applications/Xcode.app/Contents/Developer/Toolchains/XcodeDefault.xctoolchain/usr/bin/../include/c++/v1/vector:657:53
	subq	%rdi, %rax
	sarq	$4, %rax
	.loc	23 657 10               ## /Applications/Xcode.app/Contents/Developer/Toolchains/XcodeDefault.xctoolchain/usr/bin/../include/c++/v1/vector:657:10
	popq	%rbp
	retq
Ltmp292:
Lfunc_end74:
	.cfi_endproc
                                        ## -- End function
	.p2align	4, 0x90         ## -- Begin function _ZNSt3__1L16__to_raw_pointerINS_10shared_ptrI1AEEEEPT_S5_
__ZNSt3__1L16__to_raw_pointerINS_10shared_ptrI1AEEEEPT_S5_: ## @_ZNSt3__1L16__to_raw_pointerINS_10shared_ptrI1AEEEEPT_S5_
Lfunc_begin75:
	.loc	7 1107 0 is_stmt 1      ## /Applications/Xcode.app/Contents/Developer/Toolchains/XcodeDefault.xctoolchain/usr/bin/../include/c++/v1/memory:1107:0
	.cfi_startproc
## %bb.0:
	pushq	%rbp
	.cfi_def_cfa_offset 16
	.cfi_offset %rbp, -16
	movq	%rsp, %rbp
	.cfi_def_cfa_register %rbp
	movq	%rdi, -8(%rbp)
Ltmp293:
	.loc	7 1108 12 prologue_end  ## /Applications/Xcode.app/Contents/Developer/Toolchains/XcodeDefault.xctoolchain/usr/bin/../include/c++/v1/memory:1108:12
	movq	-8(%rbp), %rax
	.loc	7 1108 5 is_stmt 0      ## /Applications/Xcode.app/Contents/Developer/Toolchains/XcodeDefault.xctoolchain/usr/bin/../include/c++/v1/memory:1108:5
	popq	%rbp
	retq
Ltmp294:
Lfunc_end75:
	.cfi_endproc
                                        ## -- End function
	.p2align	4, 0x90         ## -- Begin function _ZNKSt3__113__vector_baseINS_10shared_ptrI1AEENS_9allocatorIS3_EEE8capacityEv
__ZNKSt3__113__vector_baseINS_10shared_ptrI1AEENS_9allocatorIS3_EEE8capacityEv: ## @_ZNKSt3__113__vector_baseINS_10shared_ptrI1AEENS_9allocatorIS3_EEE8capacityEv
Lfunc_begin76:
	.loc	23 373 0 is_stmt 1      ## /Applications/Xcode.app/Contents/Developer/Toolchains/XcodeDefault.xctoolchain/usr/bin/../include/c++/v1/vector:373:0
	.cfi_startproc
## %bb.0:
	pushq	%rbp
	.cfi_def_cfa_offset 16
	.cfi_offset %rbp, -16
	movq	%rsp, %rbp
	.cfi_def_cfa_register %rbp
	subq	$16, %rsp
	movq	%rdi, -8(%rbp)
	movq	-8(%rbp), %rdi
	movq	%rdi, -16(%rbp)         ## 8-byte Spill
Ltmp295:
	.loc	23 373 40 prologue_end  ## /Applications/Xcode.app/Contents/Developer/Toolchains/XcodeDefault.xctoolchain/usr/bin/../include/c++/v1/vector:373:40
	callq	__ZNKSt3__113__vector_baseINS_10shared_ptrI1AEENS_9allocatorIS3_EEE9__end_capEv
	movq	(%rax), %rax
	movq	-16(%rbp), %rdi         ## 8-byte Reload
	.loc	23 373 54 is_stmt 0     ## /Applications/Xcode.app/Contents/Developer/Toolchains/XcodeDefault.xctoolchain/usr/bin/../include/c++/v1/vector:373:54
	movq	(%rdi), %rcx
	.loc	23 373 52               ## /Applications/Xcode.app/Contents/Developer/Toolchains/XcodeDefault.xctoolchain/usr/bin/../include/c++/v1/vector:373:52
	subq	%rcx, %rax
	sarq	$4, %rax
	.loc	23 373 10               ## /Applications/Xcode.app/Contents/Developer/Toolchains/XcodeDefault.xctoolchain/usr/bin/../include/c++/v1/vector:373:10
	addq	$16, %rsp
	popq	%rbp
	retq
Ltmp296:
Lfunc_end76:
	.cfi_endproc
                                        ## -- End function
	.p2align	4, 0x90         ## -- Begin function _ZNKSt3__113__vector_baseINS_10shared_ptrI1AEENS_9allocatorIS3_EEE9__end_capEv
__ZNKSt3__113__vector_baseINS_10shared_ptrI1AEENS_9allocatorIS3_EEE9__end_capEv: ## @_ZNKSt3__113__vector_baseINS_10shared_ptrI1AEENS_9allocatorIS3_EEE9__end_capEv
Lfunc_begin77:
	.loc	23 358 0 is_stmt 1      ## /Applications/Xcode.app/Contents/Developer/Toolchains/XcodeDefault.xctoolchain/usr/bin/../include/c++/v1/vector:358:0
	.cfi_startproc
## %bb.0:
	pushq	%rbp
	.cfi_def_cfa_offset 16
	.cfi_offset %rbp, -16
	movq	%rsp, %rbp
	.cfi_def_cfa_register %rbp
	subq	$16, %rsp
	movq	%rdi, -8(%rbp)
	movq	-8(%rbp), %rdi
Ltmp297:
	.loc	23 358 17 prologue_end  ## /Applications/Xcode.app/Contents/Developer/Toolchains/XcodeDefault.xctoolchain/usr/bin/../include/c++/v1/vector:358:17
	addq	$16, %rdi
	.loc	23 358 28 is_stmt 0     ## /Applications/Xcode.app/Contents/Developer/Toolchains/XcodeDefault.xctoolchain/usr/bin/../include/c++/v1/vector:358:28
	callq	__ZNKSt3__117__compressed_pairIPNS_10shared_ptrI1AEENS_9allocatorIS3_EEE5firstEv
	.loc	23 358 10               ## /Applications/Xcode.app/Contents/Developer/Toolchains/XcodeDefault.xctoolchain/usr/bin/../include/c++/v1/vector:358:10
	addq	$16, %rsp
	popq	%rbp
	retq
Ltmp298:
Lfunc_end77:
	.cfi_endproc
                                        ## -- End function
	.p2align	4, 0x90         ## -- Begin function _ZNKSt3__117__compressed_pairIPNS_10shared_ptrI1AEENS_9allocatorIS3_EEE5firstEv
__ZNKSt3__117__compressed_pairIPNS_10shared_ptrI1AEENS_9allocatorIS3_EEE5firstEv: ## @_ZNKSt3__117__compressed_pairIPNS_10shared_ptrI1AEENS_9allocatorIS3_EEE5firstEv
Lfunc_begin78:
	.loc	7 2284 0 is_stmt 1      ## /Applications/Xcode.app/Contents/Developer/Toolchains/XcodeDefault.xctoolchain/usr/bin/../include/c++/v1/memory:2284:0
	.cfi_startproc
## %bb.0:
	pushq	%rbp
	.cfi_def_cfa_offset 16
	.cfi_offset %rbp, -16
	movq	%rsp, %rbp
	.cfi_def_cfa_register %rbp
	subq	$16, %rsp
	movq	%rdi, -8(%rbp)
	movq	-8(%rbp), %rdi
Ltmp299:
	.loc	7 2285 46 prologue_end  ## /Applications/Xcode.app/Contents/Developer/Toolchains/XcodeDefault.xctoolchain/usr/bin/../include/c++/v1/memory:2285:46
	callq	__ZNKSt3__122__compressed_pair_elemIPNS_10shared_ptrI1AEELi0ELb0EE5__getEv
	.loc	7 2285 5 is_stmt 0      ## /Applications/Xcode.app/Contents/Developer/Toolchains/XcodeDefault.xctoolchain/usr/bin/../include/c++/v1/memory:2285:5
	addq	$16, %rsp
	popq	%rbp
	retq
Ltmp300:
Lfunc_end78:
	.cfi_endproc
                                        ## -- End function
	.p2align	4, 0x90         ## -- Begin function _ZNKSt3__122__compressed_pair_elemIPNS_10shared_ptrI1AEELi0ELb0EE5__getEv
__ZNKSt3__122__compressed_pair_elemIPNS_10shared_ptrI1AEELi0ELb0EE5__getEv: ## @_ZNKSt3__122__compressed_pair_elemIPNS_10shared_ptrI1AEELi0ELb0EE5__getEv
Lfunc_begin79:
	.loc	7 2165 0 is_stmt 1      ## /Applications/Xcode.app/Contents/Developer/Toolchains/XcodeDefault.xctoolchain/usr/bin/../include/c++/v1/memory:2165:0
	.cfi_startproc
## %bb.0:
	pushq	%rbp
	.cfi_def_cfa_offset 16
	.cfi_offset %rbp, -16
	movq	%rsp, %rbp
	.cfi_def_cfa_register %rbp
	movq	%rdi, -8(%rbp)
	movq	-8(%rbp), %rax
Ltmp301:
	.loc	7 2165 44 prologue_end  ## /Applications/Xcode.app/Contents/Developer/Toolchains/XcodeDefault.xctoolchain/usr/bin/../include/c++/v1/memory:2165:44
	popq	%rbp
	retq
Ltmp302:
Lfunc_end79:
	.cfi_endproc
                                        ## -- End function
	.p2align	4, 0x90         ## -- Begin function _ZNSt3__113__vector_baseINS_10shared_ptrI1AEENS_9allocatorIS3_EEE5clearEv
__ZNSt3__113__vector_baseINS_10shared_ptrI1AEENS_9allocatorIS3_EEE5clearEv: ## @_ZNSt3__113__vector_baseINS_10shared_ptrI1AEENS_9allocatorIS3_EEE5clearEv
Lfunc_begin80:
	.loc	23 370 0                ## /Applications/Xcode.app/Contents/Developer/Toolchains/XcodeDefault.xctoolchain/usr/bin/../include/c++/v1/vector:370:0
	.cfi_startproc
## %bb.0:
	pushq	%rbp
	.cfi_def_cfa_offset 16
	.cfi_offset %rbp, -16
	movq	%rsp, %rbp
	.cfi_def_cfa_register %rbp
	subq	$16, %rsp
	movq	%rdi, -8(%rbp)
	movq	-8(%rbp), %rdi
Ltmp303:
	.loc	23 370 46 prologue_end  ## /Applications/Xcode.app/Contents/Developer/Toolchains/XcodeDefault.xctoolchain/usr/bin/../include/c++/v1/vector:370:46
	movq	(%rdi), %rsi
	.loc	23 370 28 is_stmt 0     ## /Applications/Xcode.app/Contents/Developer/Toolchains/XcodeDefault.xctoolchain/usr/bin/../include/c++/v1/vector:370:28
	callq	__ZNSt3__113__vector_baseINS_10shared_ptrI1AEENS_9allocatorIS3_EEE17__destruct_at_endEPS3_
	.loc	23 370 56               ## /Applications/Xcode.app/Contents/Developer/Toolchains/XcodeDefault.xctoolchain/usr/bin/../include/c++/v1/vector:370:56
	addq	$16, %rsp
	popq	%rbp
	retq
Ltmp304:
Lfunc_end80:
	.cfi_endproc
                                        ## -- End function
	.p2align	4, 0x90         ## -- Begin function _ZNSt3__116allocator_traitsINS_9allocatorINS_10shared_ptrI1AEEEEE10deallocateERS5_PS4_m
__ZNSt3__116allocator_traitsINS_9allocatorINS_10shared_ptrI1AEEEEE10deallocateERS5_PS4_m: ## @_ZNSt3__116allocator_traitsINS_9allocatorINS_10shared_ptrI1AEEEEE10deallocateERS5_PS4_m
Lfunc_begin81:
	.loc	7 1555 0 is_stmt 1      ## /Applications/Xcode.app/Contents/Developer/Toolchains/XcodeDefault.xctoolchain/usr/bin/../include/c++/v1/memory:1555:0
	.cfi_startproc
## %bb.0:
	pushq	%rbp
	.cfi_def_cfa_offset 16
	.cfi_offset %rbp, -16
	movq	%rsp, %rbp
	.cfi_def_cfa_register %rbp
	subq	$32, %rsp
	movq	%rdi, -8(%rbp)
	movq	%rsi, -16(%rbp)
	movq	%rdx, -24(%rbp)
Ltmp305:
	.loc	7 1555 10 prologue_end  ## /Applications/Xcode.app/Contents/Developer/Toolchains/XcodeDefault.xctoolchain/usr/bin/../include/c++/v1/memory:1555:10
	movq	-8(%rbp), %rdi
	.loc	7 1555 25 is_stmt 0     ## /Applications/Xcode.app/Contents/Developer/Toolchains/XcodeDefault.xctoolchain/usr/bin/../include/c++/v1/memory:1555:25
	movq	-16(%rbp), %rsi
	.loc	7 1555 30               ## /Applications/Xcode.app/Contents/Developer/Toolchains/XcodeDefault.xctoolchain/usr/bin/../include/c++/v1/memory:1555:30
	movq	-24(%rbp), %rdx
	.loc	7 1555 14               ## /Applications/Xcode.app/Contents/Developer/Toolchains/XcodeDefault.xctoolchain/usr/bin/../include/c++/v1/memory:1555:14
	callq	__ZNSt3__19allocatorINS_10shared_ptrI1AEEE10deallocateEPS3_m
	.loc	7 1555 35               ## /Applications/Xcode.app/Contents/Developer/Toolchains/XcodeDefault.xctoolchain/usr/bin/../include/c++/v1/memory:1555:35
	addq	$32, %rsp
	popq	%rbp
	retq
Ltmp306:
Lfunc_end81:
	.cfi_endproc
                                        ## -- End function
	.p2align	4, 0x90         ## -- Begin function _ZNSt3__113__vector_baseINS_10shared_ptrI1AEENS_9allocatorIS3_EEE7__allocEv
__ZNSt3__113__vector_baseINS_10shared_ptrI1AEENS_9allocatorIS3_EEE7__allocEv: ## @_ZNSt3__113__vector_baseINS_10shared_ptrI1AEENS_9allocatorIS3_EEE7__allocEv
Lfunc_begin82:
	.loc	23 349 0 is_stmt 1      ## /Applications/Xcode.app/Contents/Developer/Toolchains/XcodeDefault.xctoolchain/usr/bin/../include/c++/v1/vector:349:0
	.cfi_startproc
## %bb.0:
	pushq	%rbp
	.cfi_def_cfa_offset 16
	.cfi_offset %rbp, -16
	movq	%rsp, %rbp
	.cfi_def_cfa_register %rbp
	subq	$16, %rsp
	movq	%rdi, -8(%rbp)
	movq	-8(%rbp), %rdi
Ltmp307:
	.loc	23 349 17 prologue_end  ## /Applications/Xcode.app/Contents/Developer/Toolchains/XcodeDefault.xctoolchain/usr/bin/../include/c++/v1/vector:349:17
	addq	$16, %rdi
	.loc	23 349 28 is_stmt 0     ## /Applications/Xcode.app/Contents/Developer/Toolchains/XcodeDefault.xctoolchain/usr/bin/../include/c++/v1/vector:349:28
	callq	__ZNSt3__117__compressed_pairIPNS_10shared_ptrI1AEENS_9allocatorIS3_EEE6secondEv
	.loc	23 349 10               ## /Applications/Xcode.app/Contents/Developer/Toolchains/XcodeDefault.xctoolchain/usr/bin/../include/c++/v1/vector:349:10
	addq	$16, %rsp
	popq	%rbp
	retq
Ltmp308:
Lfunc_end82:
	.cfi_endproc
                                        ## -- End function
	.p2align	4, 0x90         ## -- Begin function _ZNSt3__113__vector_baseINS_10shared_ptrI1AEENS_9allocatorIS3_EEE17__destruct_at_endEPS3_
__ZNSt3__113__vector_baseINS_10shared_ptrI1AEENS_9allocatorIS3_EEE17__destruct_at_endEPS3_: ## @_ZNSt3__113__vector_baseINS_10shared_ptrI1AEENS_9allocatorIS3_EEE17__destruct_at_endEPS3_
Lfunc_begin83:
	.loc	23 424 0 is_stmt 1      ## /Applications/Xcode.app/Contents/Developer/Toolchains/XcodeDefault.xctoolchain/usr/bin/../include/c++/v1/vector:424:0
	.cfi_startproc
	.cfi_personality 155, ___gxx_personality_v0
	.cfi_lsda 16, Lexception7
## %bb.0:
	pushq	%rbp
	.cfi_def_cfa_offset 16
	.cfi_offset %rbp, -16
	movq	%rsp, %rbp
	.cfi_def_cfa_register %rbp
	subq	$48, %rsp
	movq	%rdi, -8(%rbp)
	movq	%rsi, -16(%rbp)
	movq	-8(%rbp), %rsi
Ltmp312:
	.loc	23 425 32 prologue_end  ## /Applications/Xcode.app/Contents/Developer/Toolchains/XcodeDefault.xctoolchain/usr/bin/../include/c++/v1/vector:425:32
	movq	8(%rsi), %rdi
	.loc	23 425 13 is_stmt 0     ## /Applications/Xcode.app/Contents/Developer/Toolchains/XcodeDefault.xctoolchain/usr/bin/../include/c++/v1/vector:425:13
	movq	%rdi, -24(%rbp)
	movq	%rsi, -32(%rbp)         ## 8-byte Spill
LBB83_1:                                ## =>This Inner Loop Header: Depth=1
	.loc	23 426 12 is_stmt 1     ## /Applications/Xcode.app/Contents/Developer/Toolchains/XcodeDefault.xctoolchain/usr/bin/../include/c++/v1/vector:426:12
	movq	-16(%rbp), %rax
	.loc	23 426 23 is_stmt 0     ## /Applications/Xcode.app/Contents/Developer/Toolchains/XcodeDefault.xctoolchain/usr/bin/../include/c++/v1/vector:426:23
	cmpq	-24(%rbp), %rax
	.loc	23 426 5                ## /Applications/Xcode.app/Contents/Developer/Toolchains/XcodeDefault.xctoolchain/usr/bin/../include/c++/v1/vector:426:5
	je	LBB83_4
## %bb.2:                               ##   in Loop: Header=BB83_1 Depth=1
	.loc	23 0 5                  ## /Applications/Xcode.app/Contents/Developer/Toolchains/XcodeDefault.xctoolchain/usr/bin/../include/c++/v1/vector:0:5
	movq	-32(%rbp), %rdi         ## 8-byte Reload
	.loc	23 427 33 is_stmt 1     ## /Applications/Xcode.app/Contents/Developer/Toolchains/XcodeDefault.xctoolchain/usr/bin/../include/c++/v1/vector:427:33
	callq	__ZNSt3__113__vector_baseINS_10shared_ptrI1AEENS_9allocatorIS3_EEE7__allocEv
	.loc	23 427 71 is_stmt 0     ## /Applications/Xcode.app/Contents/Developer/Toolchains/XcodeDefault.xctoolchain/usr/bin/../include/c++/v1/vector:427:71
	movq	-24(%rbp), %rdi
	addq	$-16, %rdi
	movq	%rdi, -24(%rbp)
	movq	%rax, -40(%rbp)         ## 8-byte Spill
	.loc	23 427 44               ## /Applications/Xcode.app/Contents/Developer/Toolchains/XcodeDefault.xctoolchain/usr/bin/../include/c++/v1/vector:427:44
	callq	__ZNSt3__1L16__to_raw_pointerINS_10shared_ptrI1AEEEEPT_S5_
Ltmp309:
	movq	-40(%rbp), %rdi         ## 8-byte Reload
	.loc	23 427 9                ## /Applications/Xcode.app/Contents/Developer/Toolchains/XcodeDefault.xctoolchain/usr/bin/../include/c++/v1/vector:427:9
	movq	%rax, %rsi
	callq	__ZNSt3__116allocator_traitsINS_9allocatorINS_10shared_ptrI1AEEEEE7destroyIS4_EEvRS5_PT_
Ltmp310:
	jmp	LBB83_3
LBB83_3:                                ##   in Loop: Header=BB83_1 Depth=1
	.loc	23 426 5 is_stmt 1      ## /Applications/Xcode.app/Contents/Developer/Toolchains/XcodeDefault.xctoolchain/usr/bin/../include/c++/v1/vector:426:5
	jmp	LBB83_1
LBB83_4:
	.loc	23 428 14               ## /Applications/Xcode.app/Contents/Developer/Toolchains/XcodeDefault.xctoolchain/usr/bin/../include/c++/v1/vector:428:14
	movq	-16(%rbp), %rax
	movq	-32(%rbp), %rcx         ## 8-byte Reload
	.loc	23 428 12 is_stmt 0     ## /Applications/Xcode.app/Contents/Developer/Toolchains/XcodeDefault.xctoolchain/usr/bin/../include/c++/v1/vector:428:12
	movq	%rax, 8(%rcx)
	.loc	23 429 1 is_stmt 1      ## /Applications/Xcode.app/Contents/Developer/Toolchains/XcodeDefault.xctoolchain/usr/bin/../include/c++/v1/vector:429:1
	addq	$48, %rsp
	popq	%rbp
	retq
LBB83_5:
Ltmp311:
	.loc	23 427 9                ## /Applications/Xcode.app/Contents/Developer/Toolchains/XcodeDefault.xctoolchain/usr/bin/../include/c++/v1/vector:427:9
	movq	%rax, %rdi
	movq	%rdx, -48(%rbp)         ## 8-byte Spill
	callq	___clang_call_terminate
Ltmp313:
Lfunc_end83:
	.cfi_endproc
	.section	__TEXT,__gcc_except_tab
	.p2align	2
GCC_except_table83:
Lexception7:
	.byte	255                     ## @LPStart Encoding = omit
	.byte	155                     ## @TType Encoding = indirect pcrel sdata4
	.uleb128 Lttbase4-Lttbaseref4
Lttbaseref4:
	.byte	1                       ## Call site Encoding = uleb128
	.uleb128 Lcst_end7-Lcst_begin7
Lcst_begin7:
	.uleb128 Ltmp309-Lfunc_begin83  ## >> Call Site 1 <<
	.uleb128 Ltmp310-Ltmp309        ##   Call between Ltmp309 and Ltmp310
	.uleb128 Ltmp311-Lfunc_begin83  ##     jumps to Ltmp311
	.byte	1                       ##   On action: 1
Lcst_end7:
	.byte	1                       ## >> Action Record 1 <<
                                        ##   Catch TypeInfo 1
	.byte	0                       ##   No further actions
	.p2align	2
                                        ## >> Catch TypeInfos <<
	.long	0                       ## TypeInfo 1
Lttbase4:
	.p2align	2
                                        ## -- End function
	.section	__TEXT,__text,regular,pure_instructions
	.p2align	4, 0x90         ## -- Begin function _ZNSt3__116allocator_traitsINS_9allocatorINS_10shared_ptrI1AEEEEE7destroyIS4_EEvRS5_PT_
__ZNSt3__116allocator_traitsINS_9allocatorINS_10shared_ptrI1AEEEEE7destroyIS4_EEvRS5_PT_: ## @_ZNSt3__116allocator_traitsINS_9allocatorINS_10shared_ptrI1AEEEEE7destroyIS4_EEvRS5_PT_
Lfunc_begin84:
	.loc	7 1596 0                ## /Applications/Xcode.app/Contents/Developer/Toolchains/XcodeDefault.xctoolchain/usr/bin/../include/c++/v1/memory:1596:0
	.cfi_startproc
## %bb.0:
	pushq	%rbp
	.cfi_def_cfa_offset 16
	.cfi_offset %rbp, -16
	movq	%rsp, %rbp
	.cfi_def_cfa_register %rbp
	subq	$32, %rsp
	movq	%rdi, -8(%rbp)
	movq	%rsi, -16(%rbp)
Ltmp314:
	.loc	7 1596 63 prologue_end  ## /Applications/Xcode.app/Contents/Developer/Toolchains/XcodeDefault.xctoolchain/usr/bin/../include/c++/v1/memory:1596:63
	movq	-8(%rbp), %rdi
	.loc	7 1596 68 is_stmt 0     ## /Applications/Xcode.app/Contents/Developer/Toolchains/XcodeDefault.xctoolchain/usr/bin/../include/c++/v1/memory:1596:68
	movq	-16(%rbp), %rsi
	.loc	7 1596 14               ## /Applications/Xcode.app/Contents/Developer/Toolchains/XcodeDefault.xctoolchain/usr/bin/../include/c++/v1/memory:1596:14
	callq	__ZNSt3__116allocator_traitsINS_9allocatorINS_10shared_ptrI1AEEEEE9__destroyIS4_EEvNS_17integral_constantIbLb1EEERS5_PT_
	.loc	7 1596 73               ## /Applications/Xcode.app/Contents/Developer/Toolchains/XcodeDefault.xctoolchain/usr/bin/../include/c++/v1/memory:1596:73
	addq	$32, %rsp
	popq	%rbp
	retq
Ltmp315:
Lfunc_end84:
	.cfi_endproc
                                        ## -- End function
	.p2align	4, 0x90         ## -- Begin function _ZNSt3__116allocator_traitsINS_9allocatorINS_10shared_ptrI1AEEEEE9__destroyIS4_EEvNS_17integral_constantIbLb1EEERS5_PT_
__ZNSt3__116allocator_traitsINS_9allocatorINS_10shared_ptrI1AEEEEE9__destroyIS4_EEvNS_17integral_constantIbLb1EEERS5_PT_: ## @_ZNSt3__116allocator_traitsINS_9allocatorINS_10shared_ptrI1AEEEEE9__destroyIS4_EEvNS_17integral_constantIbLb1EEERS5_PT_
Lfunc_begin85:
	.loc	7 1743 0 is_stmt 1      ## /Applications/Xcode.app/Contents/Developer/Toolchains/XcodeDefault.xctoolchain/usr/bin/../include/c++/v1/memory:1743:0
	.cfi_startproc
## %bb.0:
	pushq	%rbp
	.cfi_def_cfa_offset 16
	.cfi_offset %rbp, -16
	movq	%rsp, %rbp
	.cfi_def_cfa_register %rbp
	subq	$32, %rsp
	movq	%rdi, -16(%rbp)
	movq	%rsi, -24(%rbp)
Ltmp316:
	.loc	7 1743 14 prologue_end  ## /Applications/Xcode.app/Contents/Developer/Toolchains/XcodeDefault.xctoolchain/usr/bin/../include/c++/v1/memory:1743:14
	movq	-16(%rbp), %rdi
	.loc	7 1743 26 is_stmt 0     ## /Applications/Xcode.app/Contents/Developer/Toolchains/XcodeDefault.xctoolchain/usr/bin/../include/c++/v1/memory:1743:26
	movq	-24(%rbp), %rsi
	.loc	7 1743 18               ## /Applications/Xcode.app/Contents/Developer/Toolchains/XcodeDefault.xctoolchain/usr/bin/../include/c++/v1/memory:1743:18
	callq	__ZNSt3__19allocatorINS_10shared_ptrI1AEEE7destroyEPS3_
	.loc	7 1743 31               ## /Applications/Xcode.app/Contents/Developer/Toolchains/XcodeDefault.xctoolchain/usr/bin/../include/c++/v1/memory:1743:31
	addq	$32, %rsp
	popq	%rbp
	retq
Ltmp317:
Lfunc_end85:
	.cfi_endproc
                                        ## -- End function
	.p2align	4, 0x90         ## -- Begin function _ZNSt3__19allocatorINS_10shared_ptrI1AEEE7destroyEPS3_
__ZNSt3__19allocatorINS_10shared_ptrI1AEEE7destroyEPS3_: ## @_ZNSt3__19allocatorINS_10shared_ptrI1AEEE7destroyEPS3_
Lfunc_begin86:
	.loc	7 1881 0 is_stmt 1      ## /Applications/Xcode.app/Contents/Developer/Toolchains/XcodeDefault.xctoolchain/usr/bin/../include/c++/v1/memory:1881:0
	.cfi_startproc
## %bb.0:
	pushq	%rbp
	.cfi_def_cfa_offset 16
	.cfi_offset %rbp, -16
	movq	%rsp, %rbp
	.cfi_def_cfa_register %rbp
	subq	$16, %rsp
	movq	%rdi, -8(%rbp)
	movq	%rsi, -16(%rbp)
Ltmp318:
	.loc	7 1881 110 prologue_end ## /Applications/Xcode.app/Contents/Developer/Toolchains/XcodeDefault.xctoolchain/usr/bin/../include/c++/v1/memory:1881:110
	movq	-16(%rbp), %rdi
	.loc	7 1881 116 is_stmt 0    ## /Applications/Xcode.app/Contents/Developer/Toolchains/XcodeDefault.xctoolchain/usr/bin/../include/c++/v1/memory:1881:116
	callq	__ZNSt3__110shared_ptrI1AED1Ev
	.loc	7 1881 122              ## /Applications/Xcode.app/Contents/Developer/Toolchains/XcodeDefault.xctoolchain/usr/bin/../include/c++/v1/memory:1881:122
	addq	$16, %rsp
	popq	%rbp
	retq
Ltmp319:
Lfunc_end86:
	.cfi_endproc
                                        ## -- End function
	.p2align	4, 0x90         ## -- Begin function _ZNSt3__19allocatorINS_10shared_ptrI1AEEE10deallocateEPS3_m
__ZNSt3__19allocatorINS_10shared_ptrI1AEEE10deallocateEPS3_m: ## @_ZNSt3__19allocatorINS_10shared_ptrI1AEEE10deallocateEPS3_m
Lfunc_begin87:
	.loc	7 1817 0 is_stmt 1      ## /Applications/Xcode.app/Contents/Developer/Toolchains/XcodeDefault.xctoolchain/usr/bin/../include/c++/v1/memory:1817:0
	.cfi_startproc
	.cfi_personality 155, ___gxx_personality_v0
	.cfi_lsda 16, Lexception8
## %bb.0:
	pushq	%rbp
	.cfi_def_cfa_offset 16
	.cfi_offset %rbp, -16
	movq	%rsp, %rbp
	.cfi_def_cfa_register %rbp
	subq	$48, %rsp
	movq	%rdi, -8(%rbp)
	movq	%rsi, -16(%rbp)
	movq	%rdx, -24(%rbp)
Ltmp323:
	.loc	7 1817 47 prologue_end  ## /Applications/Xcode.app/Contents/Developer/Toolchains/XcodeDefault.xctoolchain/usr/bin/../include/c++/v1/memory:1817:47
	movq	-16(%rbp), %rdi
	.loc	7 1817 52 is_stmt 0     ## /Applications/Xcode.app/Contents/Developer/Toolchains/XcodeDefault.xctoolchain/usr/bin/../include/c++/v1/memory:1817:52
	movq	-24(%rbp), %rdx
	.loc	7 1817 56               ## /Applications/Xcode.app/Contents/Developer/Toolchains/XcodeDefault.xctoolchain/usr/bin/../include/c++/v1/memory:1817:56
	shlq	$4, %rdx
Ltmp320:
	movl	$8, %esi
	movq	%rsi, -32(%rbp)         ## 8-byte Spill
	.loc	7 1817 10               ## /Applications/Xcode.app/Contents/Developer/Toolchains/XcodeDefault.xctoolchain/usr/bin/../include/c++/v1/memory:1817:10
	movq	%rdx, %rsi
	movq	-32(%rbp), %rdx         ## 8-byte Reload
	callq	__ZNSt3__1L19__libcpp_deallocateEPvmm
Ltmp321:
	jmp	LBB87_1
LBB87_1:
	.loc	7 1817 85               ## /Applications/Xcode.app/Contents/Developer/Toolchains/XcodeDefault.xctoolchain/usr/bin/../include/c++/v1/memory:1817:85
	addq	$48, %rsp
	popq	%rbp
	retq
LBB87_2:
Ltmp322:
	.loc	7 1817 10               ## /Applications/Xcode.app/Contents/Developer/Toolchains/XcodeDefault.xctoolchain/usr/bin/../include/c++/v1/memory:1817:10
	movq	%rax, %rdi
	movq	%rdx, -40(%rbp)         ## 8-byte Spill
	callq	___clang_call_terminate
Ltmp324:
Lfunc_end87:
	.cfi_endproc
	.section	__TEXT,__gcc_except_tab
	.p2align	2
GCC_except_table87:
Lexception8:
	.byte	255                     ## @LPStart Encoding = omit
	.byte	155                     ## @TType Encoding = indirect pcrel sdata4
	.uleb128 Lttbase5-Lttbaseref5
Lttbaseref5:
	.byte	1                       ## Call site Encoding = uleb128
	.uleb128 Lcst_end8-Lcst_begin8
Lcst_begin8:
	.uleb128 Ltmp320-Lfunc_begin87  ## >> Call Site 1 <<
	.uleb128 Ltmp321-Ltmp320        ##   Call between Ltmp320 and Ltmp321
	.uleb128 Ltmp322-Lfunc_begin87  ##     jumps to Ltmp322
	.byte	1                       ##   On action: 1
Lcst_end8:
	.byte	1                       ## >> Action Record 1 <<
                                        ##   Catch TypeInfo 1
	.byte	0                       ##   No further actions
	.p2align	2
                                        ## >> Catch TypeInfos <<
	.long	0                       ## TypeInfo 1
Lttbase5:
	.p2align	2
                                        ## -- End function
	.section	__TEXT,__text,regular,pure_instructions
	.p2align	4, 0x90         ## -- Begin function _ZNSt3__1L19__libcpp_deallocateEPvmm
__ZNSt3__1L19__libcpp_deallocateEPvmm:  ## @_ZNSt3__1L19__libcpp_deallocateEPvmm
Lfunc_begin88:
	.loc	15 325 0 is_stmt 1      ## /Applications/Xcode.app/Contents/Developer/Toolchains/XcodeDefault.xctoolchain/usr/bin/../include/c++/v1/new:325:0
	.cfi_startproc
## %bb.0:
	pushq	%rbp
	.cfi_def_cfa_offset 16
	.cfi_offset %rbp, -16
	movq	%rsp, %rbp
	.cfi_def_cfa_register %rbp
	subq	$32, %rsp
	movq	%rdi, -8(%rbp)
	movq	%rsi, -16(%rbp)
	movq	%rdx, -24(%rbp)
Ltmp325:
	.loc	15 326 56 prologue_end  ## /Applications/Xcode.app/Contents/Developer/Toolchains/XcodeDefault.xctoolchain/usr/bin/../include/c++/v1/new:326:56
	movq	-8(%rbp), %rdi
	.loc	15 326 63 is_stmt 0     ## /Applications/Xcode.app/Contents/Developer/Toolchains/XcodeDefault.xctoolchain/usr/bin/../include/c++/v1/new:326:63
	movq	-16(%rbp), %rsi
	.loc	15 326 71               ## /Applications/Xcode.app/Contents/Developer/Toolchains/XcodeDefault.xctoolchain/usr/bin/../include/c++/v1/new:326:71
	movq	-24(%rbp), %rdx
	.loc	15 326 3                ## /Applications/Xcode.app/Contents/Developer/Toolchains/XcodeDefault.xctoolchain/usr/bin/../include/c++/v1/new:326:3
	callq	__ZNSt3__117_DeallocateCaller33__do_deallocate_handle_size_alignEPvmm
	.loc	15 327 1 is_stmt 1      ## /Applications/Xcode.app/Contents/Developer/Toolchains/XcodeDefault.xctoolchain/usr/bin/../include/c++/v1/new:327:1
	addq	$32, %rsp
	popq	%rbp
	retq
Ltmp326:
Lfunc_end88:
	.cfi_endproc
                                        ## -- End function
	.p2align	4, 0x90         ## -- Begin function _ZNSt3__117_DeallocateCaller33__do_deallocate_handle_size_alignEPvmm
__ZNSt3__117_DeallocateCaller33__do_deallocate_handle_size_alignEPvmm: ## @_ZNSt3__117_DeallocateCaller33__do_deallocate_handle_size_alignEPvmm
Lfunc_begin89:
	.loc	15 245 0                ## /Applications/Xcode.app/Contents/Developer/Toolchains/XcodeDefault.xctoolchain/usr/bin/../include/c++/v1/new:245:0
	.cfi_startproc
## %bb.0:
	pushq	%rbp
	.cfi_def_cfa_offset 16
	.cfi_offset %rbp, -16
	movq	%rsp, %rbp
	.cfi_def_cfa_register %rbp
	subq	$32, %rsp
	movq	%rdi, -8(%rbp)
	movq	%rsi, -16(%rbp)
	movq	%rdx, -24(%rbp)
Ltmp327:
	.loc	15 250 34 prologue_end  ## /Applications/Xcode.app/Contents/Developer/Toolchains/XcodeDefault.xctoolchain/usr/bin/../include/c++/v1/new:250:34
	movq	-24(%rbp), %rdi
	.loc	15 250 9 is_stmt 0      ## /Applications/Xcode.app/Contents/Developer/Toolchains/XcodeDefault.xctoolchain/usr/bin/../include/c++/v1/new:250:9
	callq	__ZNSt3__1L24__is_overaligned_for_newEm
Ltmp328:
	.loc	15 250 9                ## /Applications/Xcode.app/Contents/Developer/Toolchains/XcodeDefault.xctoolchain/usr/bin/../include/c++/v1/new:250:9
	testb	$1, %al
	jne	LBB89_1
	jmp	LBB89_2
LBB89_1:
Ltmp329:
	.loc	15 251 64 is_stmt 1     ## /Applications/Xcode.app/Contents/Developer/Toolchains/XcodeDefault.xctoolchain/usr/bin/../include/c++/v1/new:251:64
	movq	-24(%rbp), %rax
	.loc	15 251 25 is_stmt 0     ## /Applications/Xcode.app/Contents/Developer/Toolchains/XcodeDefault.xctoolchain/usr/bin/../include/c++/v1/new:251:25
	movq	%rax, -32(%rbp)
	.loc	15 252 42 is_stmt 1     ## /Applications/Xcode.app/Contents/Developer/Toolchains/XcodeDefault.xctoolchain/usr/bin/../include/c++/v1/new:252:42
	movq	-8(%rbp), %rdi
	.loc	15 252 49 is_stmt 0     ## /Applications/Xcode.app/Contents/Developer/Toolchains/XcodeDefault.xctoolchain/usr/bin/../include/c++/v1/new:252:49
	movq	-16(%rbp), %rsi
	.loc	15 252 57               ## /Applications/Xcode.app/Contents/Developer/Toolchains/XcodeDefault.xctoolchain/usr/bin/../include/c++/v1/new:252:57
	movq	-32(%rbp), %rdx
	.loc	15 252 14               ## /Applications/Xcode.app/Contents/Developer/Toolchains/XcodeDefault.xctoolchain/usr/bin/../include/c++/v1/new:252:14
	callq	__ZNSt3__117_DeallocateCaller27__do_deallocate_handle_sizeEPvmSt11align_val_t
	.loc	15 252 7                ## /Applications/Xcode.app/Contents/Developer/Toolchains/XcodeDefault.xctoolchain/usr/bin/../include/c++/v1/new:252:7
	jmp	LBB89_3
Ltmp330:
LBB89_2:
	.loc	15 254 42 is_stmt 1     ## /Applications/Xcode.app/Contents/Developer/Toolchains/XcodeDefault.xctoolchain/usr/bin/../include/c++/v1/new:254:42
	movq	-8(%rbp), %rdi
	.loc	15 254 49 is_stmt 0     ## /Applications/Xcode.app/Contents/Developer/Toolchains/XcodeDefault.xctoolchain/usr/bin/../include/c++/v1/new:254:49
	movq	-16(%rbp), %rsi
	.loc	15 254 14               ## /Applications/Xcode.app/Contents/Developer/Toolchains/XcodeDefault.xctoolchain/usr/bin/../include/c++/v1/new:254:14
	callq	__ZNSt3__117_DeallocateCaller27__do_deallocate_handle_sizeEPvm
Ltmp331:
LBB89_3:
	.loc	15 257 3 is_stmt 1      ## /Applications/Xcode.app/Contents/Developer/Toolchains/XcodeDefault.xctoolchain/usr/bin/../include/c++/v1/new:257:3
	addq	$32, %rsp
	popq	%rbp
	retq
Ltmp332:
Lfunc_end89:
	.cfi_endproc
                                        ## -- End function
	.p2align	4, 0x90         ## -- Begin function _ZNSt3__1L24__is_overaligned_for_newEm
__ZNSt3__1L24__is_overaligned_for_newEm: ## @_ZNSt3__1L24__is_overaligned_for_newEm
Lfunc_begin90:
	.loc	15 215 0                ## /Applications/Xcode.app/Contents/Developer/Toolchains/XcodeDefault.xctoolchain/usr/bin/../include/c++/v1/new:215:0
	.cfi_startproc
## %bb.0:
	pushq	%rbp
	.cfi_def_cfa_offset 16
	.cfi_offset %rbp, -16
	movq	%rsp, %rbp
	.cfi_def_cfa_register %rbp
	movq	%rdi, -8(%rbp)
Ltmp333:
	.loc	15 217 18 prologue_end  ## /Applications/Xcode.app/Contents/Developer/Toolchains/XcodeDefault.xctoolchain/usr/bin/../include/c++/v1/new:217:18
	cmpq	$16, -8(%rbp)
	seta	%al
	.loc	15 217 3 is_stmt 0      ## /Applications/Xcode.app/Contents/Developer/Toolchains/XcodeDefault.xctoolchain/usr/bin/../include/c++/v1/new:217:3
	andb	$1, %al
	movzbl	%al, %eax
	popq	%rbp
	retq
Ltmp334:
Lfunc_end90:
	.cfi_endproc
                                        ## -- End function
	.globl	__ZNSt3__117_DeallocateCaller27__do_deallocate_handle_sizeEPvmSt11align_val_t ## -- Begin function _ZNSt3__117_DeallocateCaller27__do_deallocate_handle_sizeEPvmSt11align_val_t
	.weak_definition	__ZNSt3__117_DeallocateCaller27__do_deallocate_handle_sizeEPvmSt11align_val_t
	.p2align	4, 0x90
__ZNSt3__117_DeallocateCaller27__do_deallocate_handle_sizeEPvmSt11align_val_t: ## @_ZNSt3__117_DeallocateCaller27__do_deallocate_handle_sizeEPvmSt11align_val_t
Lfunc_begin91:
	.loc	15 285 0 is_stmt 1      ## /Applications/Xcode.app/Contents/Developer/Toolchains/XcodeDefault.xctoolchain/usr/bin/../include/c++/v1/new:285:0
	.cfi_startproc
## %bb.0:
	pushq	%rbp
	.cfi_def_cfa_offset 16
	.cfi_offset %rbp, -16
	movq	%rsp, %rbp
	.cfi_def_cfa_register %rbp
	subq	$32, %rsp
	movq	%rdi, -8(%rbp)
	movq	%rsi, -16(%rbp)
	movq	%rdx, -24(%rbp)
Ltmp335:
	.loc	15 288 22 prologue_end  ## /Applications/Xcode.app/Contents/Developer/Toolchains/XcodeDefault.xctoolchain/usr/bin/../include/c++/v1/new:288:22
	movq	-8(%rbp), %rdi
	.loc	15 288 29 is_stmt 0     ## /Applications/Xcode.app/Contents/Developer/Toolchains/XcodeDefault.xctoolchain/usr/bin/../include/c++/v1/new:288:29
	movq	-24(%rbp), %rsi
	.loc	15 288 12               ## /Applications/Xcode.app/Contents/Developer/Toolchains/XcodeDefault.xctoolchain/usr/bin/../include/c++/v1/new:288:12
	callq	__ZNSt3__117_DeallocateCaller9__do_callISt11align_val_tEEvPvT_
	.loc	15 288 5                ## /Applications/Xcode.app/Contents/Developer/Toolchains/XcodeDefault.xctoolchain/usr/bin/../include/c++/v1/new:288:5
	addq	$32, %rsp
	popq	%rbp
	retq
Ltmp336:
Lfunc_end91:
	.cfi_endproc
                                        ## -- End function
	.globl	__ZNSt3__117_DeallocateCaller27__do_deallocate_handle_sizeEPvm ## -- Begin function _ZNSt3__117_DeallocateCaller27__do_deallocate_handle_sizeEPvm
	.weak_definition	__ZNSt3__117_DeallocateCaller27__do_deallocate_handle_sizeEPvm
	.p2align	4, 0x90
__ZNSt3__117_DeallocateCaller27__do_deallocate_handle_sizeEPvm: ## @_ZNSt3__117_DeallocateCaller27__do_deallocate_handle_sizeEPvm
Lfunc_begin92:
	.loc	15 275 0 is_stmt 1      ## /Applications/Xcode.app/Contents/Developer/Toolchains/XcodeDefault.xctoolchain/usr/bin/../include/c++/v1/new:275:0
	.cfi_startproc
## %bb.0:
	pushq	%rbp
	.cfi_def_cfa_offset 16
	.cfi_offset %rbp, -16
	movq	%rsp, %rbp
	.cfi_def_cfa_register %rbp
	subq	$16, %rsp
	movq	%rdi, -8(%rbp)
	movq	%rsi, -16(%rbp)
Ltmp337:
	.loc	15 278 22 prologue_end  ## /Applications/Xcode.app/Contents/Developer/Toolchains/XcodeDefault.xctoolchain/usr/bin/../include/c++/v1/new:278:22
	movq	-8(%rbp), %rdi
	.loc	15 278 12 is_stmt 0     ## /Applications/Xcode.app/Contents/Developer/Toolchains/XcodeDefault.xctoolchain/usr/bin/../include/c++/v1/new:278:12
	callq	__ZNSt3__117_DeallocateCaller9__do_callEPv
	.loc	15 278 5                ## /Applications/Xcode.app/Contents/Developer/Toolchains/XcodeDefault.xctoolchain/usr/bin/../include/c++/v1/new:278:5
	addq	$16, %rsp
	popq	%rbp
	retq
Ltmp338:
Lfunc_end92:
	.cfi_endproc
                                        ## -- End function
	.globl	__ZNSt3__117_DeallocateCaller9__do_callISt11align_val_tEEvPvT_ ## -- Begin function _ZNSt3__117_DeallocateCaller9__do_callISt11align_val_tEEvPvT_
	.weak_definition	__ZNSt3__117_DeallocateCaller9__do_callISt11align_val_tEEvPvT_
	.p2align	4, 0x90
__ZNSt3__117_DeallocateCaller9__do_callISt11align_val_tEEvPvT_: ## @_ZNSt3__117_DeallocateCaller9__do_callISt11align_val_tEEvPvT_
Lfunc_begin93:
	.loc	15 307 0 is_stmt 1      ## /Applications/Xcode.app/Contents/Developer/Toolchains/XcodeDefault.xctoolchain/usr/bin/../include/c++/v1/new:307:0
	.cfi_startproc
## %bb.0:
	pushq	%rbp
	.cfi_def_cfa_offset 16
	.cfi_offset %rbp, -16
	movq	%rsp, %rbp
	.cfi_def_cfa_register %rbp
	subq	$16, %rsp
	movq	%rdi, -8(%rbp)
	movq	%rsi, -16(%rbp)
Ltmp339:
	.loc	15 312 38 prologue_end  ## /Applications/Xcode.app/Contents/Developer/Toolchains/XcodeDefault.xctoolchain/usr/bin/../include/c++/v1/new:312:38
	movq	-8(%rbp), %rdi
	.loc	15 312 45 is_stmt 0     ## /Applications/Xcode.app/Contents/Developer/Toolchains/XcodeDefault.xctoolchain/usr/bin/../include/c++/v1/new:312:45
	movq	-16(%rbp), %rsi
	.loc	15 312 12               ## /Applications/Xcode.app/Contents/Developer/Toolchains/XcodeDefault.xctoolchain/usr/bin/../include/c++/v1/new:312:12
	callq	__ZdlPvSt11align_val_t
	.loc	15 312 5                ## /Applications/Xcode.app/Contents/Developer/Toolchains/XcodeDefault.xctoolchain/usr/bin/../include/c++/v1/new:312:5
	addq	$16, %rsp
	popq	%rbp
	retq
Ltmp340:
Lfunc_end93:
	.cfi_endproc
                                        ## -- End function
	.globl	__ZNSt3__117_DeallocateCaller9__do_callEPv ## -- Begin function _ZNSt3__117_DeallocateCaller9__do_callEPv
	.weak_definition	__ZNSt3__117_DeallocateCaller9__do_callEPv
	.p2align	4, 0x90
__ZNSt3__117_DeallocateCaller9__do_callEPv: ## @_ZNSt3__117_DeallocateCaller9__do_callEPv
Lfunc_begin94:
	.loc	15 316 0 is_stmt 1      ## /Applications/Xcode.app/Contents/Developer/Toolchains/XcodeDefault.xctoolchain/usr/bin/../include/c++/v1/new:316:0
	.cfi_startproc
## %bb.0:
	pushq	%rbp
	.cfi_def_cfa_offset 16
	.cfi_offset %rbp, -16
	movq	%rsp, %rbp
	.cfi_def_cfa_register %rbp
	subq	$16, %rsp
	movq	%rdi, -8(%rbp)
Ltmp341:
	.loc	15 320 38 prologue_end  ## /Applications/Xcode.app/Contents/Developer/Toolchains/XcodeDefault.xctoolchain/usr/bin/../include/c++/v1/new:320:38
	movq	-8(%rbp), %rdi
	.loc	15 320 12 is_stmt 0     ## /Applications/Xcode.app/Contents/Developer/Toolchains/XcodeDefault.xctoolchain/usr/bin/../include/c++/v1/new:320:12
	callq	__ZdlPv
	.loc	15 320 5                ## /Applications/Xcode.app/Contents/Developer/Toolchains/XcodeDefault.xctoolchain/usr/bin/../include/c++/v1/new:320:5
	addq	$16, %rsp
	popq	%rbp
	retq
Ltmp342:
Lfunc_end94:
	.cfi_endproc
                                        ## -- End function
	.p2align	4, 0x90         ## -- Begin function _ZNSt3__117__compressed_pairIPNS_10shared_ptrI1AEENS_9allocatorIS3_EEE6secondEv
__ZNSt3__117__compressed_pairIPNS_10shared_ptrI1AEENS_9allocatorIS3_EEE6secondEv: ## @_ZNSt3__117__compressed_pairIPNS_10shared_ptrI1AEENS_9allocatorIS3_EEE6secondEv
Lfunc_begin95:
	.loc	7 2289 0 is_stmt 1      ## /Applications/Xcode.app/Contents/Developer/Toolchains/XcodeDefault.xctoolchain/usr/bin/../include/c++/v1/memory:2289:0
	.cfi_startproc
## %bb.0:
	pushq	%rbp
	.cfi_def_cfa_offset 16
	.cfi_offset %rbp, -16
	movq	%rsp, %rbp
	.cfi_def_cfa_register %rbp
	subq	$16, %rsp
	movq	%rdi, -8(%rbp)
	movq	-8(%rbp), %rdi
Ltmp343:
	.loc	7 2290 40 prologue_end  ## /Applications/Xcode.app/Contents/Developer/Toolchains/XcodeDefault.xctoolchain/usr/bin/../include/c++/v1/memory:2290:40
	callq	__ZNSt3__122__compressed_pair_elemINS_9allocatorINS_10shared_ptrI1AEEEELi1ELb1EE5__getEv
	.loc	7 2290 5 is_stmt 0      ## /Applications/Xcode.app/Contents/Developer/Toolchains/XcodeDefault.xctoolchain/usr/bin/../include/c++/v1/memory:2290:5
	addq	$16, %rsp
	popq	%rbp
	retq
Ltmp344:
Lfunc_end95:
	.cfi_endproc
                                        ## -- End function
	.p2align	4, 0x90         ## -- Begin function _ZNSt3__122__compressed_pair_elemINS_9allocatorINS_10shared_ptrI1AEEEELi1ELb1EE5__getEv
__ZNSt3__122__compressed_pair_elemINS_9allocatorINS_10shared_ptrI1AEEEELi1ELb1EE5__getEv: ## @_ZNSt3__122__compressed_pair_elemINS_9allocatorINS_10shared_ptrI1AEEEELi1ELb1EE5__getEv
Lfunc_begin96:
	.loc	7 2202 0 is_stmt 1      ## /Applications/Xcode.app/Contents/Developer/Toolchains/XcodeDefault.xctoolchain/usr/bin/../include/c++/v1/memory:2202:0
	.cfi_startproc
## %bb.0:
	pushq	%rbp
	.cfi_def_cfa_offset 16
	.cfi_offset %rbp, -16
	movq	%rsp, %rbp
	.cfi_def_cfa_register %rbp
	movq	%rdi, -8(%rbp)
	movq	-8(%rbp), %rdi
Ltmp345:
	.loc	7 2202 110 prologue_end ## /Applications/Xcode.app/Contents/Developer/Toolchains/XcodeDefault.xctoolchain/usr/bin/../include/c++/v1/memory:2202:110
	movq	%rdi, %rax
	popq	%rbp
	retq
Ltmp346:
Lfunc_end96:
	.cfi_endproc
                                        ## -- End function
	.globl	__ZNSt3__110shared_ptrI1AEC2IS1_EEPT_NS_9enable_ifIXsr14is_convertibleIS5_PS1_EE5valueENS2_5__natEE4typeE ## -- Begin function _ZNSt3__110shared_ptrI1AEC2IS1_EEPT_NS_9enable_ifIXsr14is_convertibleIS5_PS1_EE5valueENS2_5__natEE4typeE
	.weak_def_can_be_hidden	__ZNSt3__110shared_ptrI1AEC2IS1_EEPT_NS_9enable_ifIXsr14is_convertibleIS5_PS1_EE5valueENS2_5__natEE4typeE
	.p2align	4, 0x90
__ZNSt3__110shared_ptrI1AEC2IS1_EEPT_NS_9enable_ifIXsr14is_convertibleIS5_PS1_EE5valueENS2_5__natEE4typeE: ## @_ZNSt3__110shared_ptrI1AEC2IS1_EEPT_NS_9enable_ifIXsr14is_convertibleIS5_PS1_EE5valueENS2_5__natEE4typeE
Lfunc_begin97:
	.loc	7 4066 0                ## /Applications/Xcode.app/Contents/Developer/Toolchains/XcodeDefault.xctoolchain/usr/bin/../include/c++/v1/memory:4066:0
	.cfi_startproc
	.cfi_personality 155, ___gxx_personality_v0
	.cfi_lsda 16, Lexception9
## %bb.0:
	pushq	%rbp
	.cfi_def_cfa_offset 16
	.cfi_offset %rbp, -16
	movq	%rsp, %rbp
	.cfi_def_cfa_register %rbp
	subq	$112, %rsp
	movl	%edx, -8(%rbp)
	movq	%rdi, -16(%rbp)
	movq	%rsi, -24(%rbp)
	movq	-16(%rbp), %rsi
Ltmp353:
	.loc	7 4065 14 prologue_end  ## /Applications/Xcode.app/Contents/Developer/Toolchains/XcodeDefault.xctoolchain/usr/bin/../include/c++/v1/memory:4065:14
	movq	-24(%rbp), %rdi
	.loc	7 4065 7 is_stmt 0      ## /Applications/Xcode.app/Contents/Developer/Toolchains/XcodeDefault.xctoolchain/usr/bin/../include/c++/v1/memory:4065:7
	movq	%rdi, (%rsi)
Ltmp354:
	.loc	7 4067 28 is_stmt 1     ## /Applications/Xcode.app/Contents/Developer/Toolchains/XcodeDefault.xctoolchain/usr/bin/../include/c++/v1/memory:4067:28
	movq	-24(%rbp), %rdi
	leaq	-32(%rbp), %rax
	movq	%rdi, -64(%rbp)         ## 8-byte Spill
	.loc	7 4067 21 is_stmt 0     ## /Applications/Xcode.app/Contents/Developer/Toolchains/XcodeDefault.xctoolchain/usr/bin/../include/c++/v1/memory:4067:21
	movq	%rax, %rdi
	movq	-64(%rbp), %rax         ## 8-byte Reload
	movq	%rsi, -72(%rbp)         ## 8-byte Spill
	movq	%rax, %rsi
	callq	__ZNSt3__110unique_ptrI1ANS_14default_deleteIS1_EEEC1ILb1EvEEPS1_
Ltmp347:
	movl	$32, %edi
	.loc	7 4070 16 is_stmt 1     ## /Applications/Xcode.app/Contents/Developer/Toolchains/XcodeDefault.xctoolchain/usr/bin/../include/c++/v1/memory:4070:16
	callq	__Znwm
Ltmp348:
	movq	%rax, -80(%rbp)         ## 8-byte Spill
	jmp	LBB97_1
LBB97_1:
	.loc	7 0 16 is_stmt 0        ## /Applications/Xcode.app/Contents/Developer/Toolchains/XcodeDefault.xctoolchain/usr/bin/../include/c++/v1/memory:0:16
	movq	-80(%rbp), %rax         ## 8-byte Reload
	.loc	7 4070 30               ## /Applications/Xcode.app/Contents/Developer/Toolchains/XcodeDefault.xctoolchain/usr/bin/../include/c++/v1/memory:4070:30
	movq	-24(%rbp), %rsi
	leaq	-56(%rbp), %rdi
	movq	%rax, -88(%rbp)         ## 8-byte Spill
	movq	%rsi, -96(%rbp)         ## 8-byte Spill
	.loc	7 4070 58               ## /Applications/Xcode.app/Contents/Developer/Toolchains/XcodeDefault.xctoolchain/usr/bin/../include/c++/v1/memory:4070:58
	callq	__ZNSt3__19allocatorI1AEC1Ev
Ltmp350:
	movq	-80(%rbp), %rdi         ## 8-byte Reload
	movq	-96(%rbp), %rsi         ## 8-byte Reload
	.loc	7 4070 20               ## /Applications/Xcode.app/Contents/Developer/Toolchains/XcodeDefault.xctoolchain/usr/bin/../include/c++/v1/memory:4070:20
	callq	__ZNSt3__120__shared_ptr_pointerIP1ANS_14default_deleteIS1_EENS_9allocatorIS1_EEEC1ES2_S4_S6_
Ltmp351:
	jmp	LBB97_2
LBB97_2:
	.loc	7 0 20                  ## /Applications/Xcode.app/Contents/Developer/Toolchains/XcodeDefault.xctoolchain/usr/bin/../include/c++/v1/memory:0:20
	movq	-88(%rbp), %rax         ## 8-byte Reload
	movq	-72(%rbp), %rcx         ## 8-byte Reload
	.loc	7 4070 14               ## /Applications/Xcode.app/Contents/Developer/Toolchains/XcodeDefault.xctoolchain/usr/bin/../include/c++/v1/memory:4070:14
	movq	%rax, 8(%rcx)
	.loc	7 4071 12 is_stmt 1     ## /Applications/Xcode.app/Contents/Developer/Toolchains/XcodeDefault.xctoolchain/usr/bin/../include/c++/v1/memory:4071:12
	leaq	-32(%rbp), %rdi
	callq	__ZNSt3__110unique_ptrI1ANS_14default_deleteIS1_EEE7releaseEv
	.loc	7 4072 24               ## /Applications/Xcode.app/Contents/Developer/Toolchains/XcodeDefault.xctoolchain/usr/bin/../include/c++/v1/memory:4072:24
	movq	-24(%rbp), %rsi
	.loc	7 4072 29 is_stmt 0     ## /Applications/Xcode.app/Contents/Developer/Toolchains/XcodeDefault.xctoolchain/usr/bin/../include/c++/v1/memory:4072:29
	movq	-24(%rbp), %rdx
	movq	-72(%rbp), %rdi         ## 8-byte Reload
	movq	%rax, -104(%rbp)        ## 8-byte Spill
	.loc	7 4072 5                ## /Applications/Xcode.app/Contents/Developer/Toolchains/XcodeDefault.xctoolchain/usr/bin/../include/c++/v1/memory:4072:5
	movb	$0, %al
	callq	__ZNSt3__110shared_ptrI1AE18__enable_weak_thisEz
Ltmp355:
	.loc	7 4073 1 is_stmt 1      ## /Applications/Xcode.app/Contents/Developer/Toolchains/XcodeDefault.xctoolchain/usr/bin/../include/c++/v1/memory:4073:1
	leaq	-32(%rbp), %rdi
	callq	__ZNSt3__110unique_ptrI1ANS_14default_deleteIS1_EEED1Ev
	addq	$112, %rsp
	popq	%rbp
	retq
LBB97_3:
Ltmp349:
Ltmp356:
	.loc	7 4073 1 is_stmt 0      ## /Applications/Xcode.app/Contents/Developer/Toolchains/XcodeDefault.xctoolchain/usr/bin/../include/c++/v1/memory:4073:1
	movl	%edx, %ecx
	movq	%rax, -40(%rbp)
	movl	%ecx, -44(%rbp)
	jmp	LBB97_5
LBB97_4:
Ltmp352:
	movl	%edx, %ecx
	movq	%rax, -40(%rbp)
	movl	%ecx, -44(%rbp)
	movq	-80(%rbp), %rdi         ## 8-byte Reload
	.loc	7 4070 16 is_stmt 1     ## /Applications/Xcode.app/Contents/Developer/Toolchains/XcodeDefault.xctoolchain/usr/bin/../include/c++/v1/memory:4070:16
	callq	__ZdlPv
Ltmp357:
LBB97_5:
	.loc	7 4073 1                ## /Applications/Xcode.app/Contents/Developer/Toolchains/XcodeDefault.xctoolchain/usr/bin/../include/c++/v1/memory:4073:1
	leaq	-32(%rbp), %rdi
	callq	__ZNSt3__110unique_ptrI1ANS_14default_deleteIS1_EEED1Ev
## %bb.6:
	movq	-40(%rbp), %rdi
	callq	__Unwind_Resume
	ud2
Ltmp358:
Lfunc_end97:
	.cfi_endproc
	.section	__TEXT,__gcc_except_tab
	.p2align	2
GCC_except_table97:
Lexception9:
	.byte	255                     ## @LPStart Encoding = omit
	.byte	255                     ## @TType Encoding = omit
	.byte	1                       ## Call site Encoding = uleb128
	.uleb128 Lcst_end9-Lcst_begin9
Lcst_begin9:
	.uleb128 Ltmp347-Lfunc_begin97  ## >> Call Site 1 <<
	.uleb128 Ltmp348-Ltmp347        ##   Call between Ltmp347 and Ltmp348
	.uleb128 Ltmp349-Lfunc_begin97  ##     jumps to Ltmp349
	.byte	0                       ##   On action: cleanup
	.uleb128 Ltmp350-Lfunc_begin97  ## >> Call Site 2 <<
	.uleb128 Ltmp351-Ltmp350        ##   Call between Ltmp350 and Ltmp351
	.uleb128 Ltmp352-Lfunc_begin97  ##     jumps to Ltmp352
	.byte	0                       ##   On action: cleanup
	.uleb128 Ltmp351-Lfunc_begin97  ## >> Call Site 3 <<
	.uleb128 Lfunc_end97-Ltmp351    ##   Call between Ltmp351 and Lfunc_end97
	.byte	0                       ##     has no landing pad
	.byte	0                       ##   On action: cleanup
Lcst_end9:
	.p2align	2
                                        ## -- End function
	.section	__TEXT,__text,regular,pure_instructions
	.p2align	4, 0x90         ## -- Begin function _ZNSt3__110unique_ptrI1ANS_14default_deleteIS1_EEEC1ILb1EvEEPS1_
__ZNSt3__110unique_ptrI1ANS_14default_deleteIS1_EEEC1ILb1EvEEPS1_: ## @_ZNSt3__110unique_ptrI1ANS_14default_deleteIS1_EEEC1ILb1EvEEPS1_
Lfunc_begin98:
	.loc	7 2471 0                ## /Applications/Xcode.app/Contents/Developer/Toolchains/XcodeDefault.xctoolchain/usr/bin/../include/c++/v1/memory:2471:0
	.cfi_startproc
## %bb.0:
	pushq	%rbp
	.cfi_def_cfa_offset 16
	.cfi_offset %rbp, -16
	movq	%rsp, %rbp
	.cfi_def_cfa_register %rbp
	subq	$16, %rsp
	movq	%rdi, -8(%rbp)
	movq	%rsi, -16(%rbp)
	movq	-8(%rbp), %rdi
Ltmp359:
	.loc	7 2471 59 prologue_end  ## /Applications/Xcode.app/Contents/Developer/Toolchains/XcodeDefault.xctoolchain/usr/bin/../include/c++/v1/memory:2471:59
	movq	-16(%rbp), %rsi
	callq	__ZNSt3__110unique_ptrI1ANS_14default_deleteIS1_EEEC2ILb1EvEEPS1_
	.loc	7 2471 60 is_stmt 0     ## /Applications/Xcode.app/Contents/Developer/Toolchains/XcodeDefault.xctoolchain/usr/bin/../include/c++/v1/memory:2471:60
	addq	$16, %rsp
	popq	%rbp
	retq
Ltmp360:
Lfunc_end98:
	.cfi_endproc
                                        ## -- End function
	.p2align	4, 0x90         ## -- Begin function _ZNSt3__19allocatorI1AEC1Ev
__ZNSt3__19allocatorI1AEC1Ev:           ## @_ZNSt3__19allocatorI1AEC1Ev
Lfunc_begin99:
	.loc	7 1798 0 is_stmt 1      ## /Applications/Xcode.app/Contents/Developer/Toolchains/XcodeDefault.xctoolchain/usr/bin/../include/c++/v1/memory:1798:0
	.cfi_startproc
## %bb.0:
	pushq	%rbp
	.cfi_def_cfa_offset 16
	.cfi_offset %rbp, -16
	movq	%rsp, %rbp
	.cfi_def_cfa_register %rbp
	subq	$16, %rsp
	movq	%rdi, -8(%rbp)
	movq	-8(%rbp), %rdi
Ltmp361:
	.loc	7 1798 26 prologue_end  ## /Applications/Xcode.app/Contents/Developer/Toolchains/XcodeDefault.xctoolchain/usr/bin/../include/c++/v1/memory:1798:26
	callq	__ZNSt3__19allocatorI1AEC2Ev
	.loc	7 1798 27 is_stmt 0     ## /Applications/Xcode.app/Contents/Developer/Toolchains/XcodeDefault.xctoolchain/usr/bin/../include/c++/v1/memory:1798:27
	addq	$16, %rsp
	popq	%rbp
	retq
Ltmp362:
Lfunc_end99:
	.cfi_endproc
                                        ## -- End function
	.p2align	4, 0x90         ## -- Begin function _ZNSt3__120__shared_ptr_pointerIP1ANS_14default_deleteIS1_EENS_9allocatorIS1_EEEC1ES2_S4_S6_
__ZNSt3__120__shared_ptr_pointerIP1ANS_14default_deleteIS1_EENS_9allocatorIS1_EEEC1ES2_S4_S6_: ## @_ZNSt3__120__shared_ptr_pointerIP1ANS_14default_deleteIS1_EENS_9allocatorIS1_EEEC1ES2_S4_S6_
Lfunc_begin100:
	.loc	7 3614 0 is_stmt 1      ## /Applications/Xcode.app/Contents/Developer/Toolchains/XcodeDefault.xctoolchain/usr/bin/../include/c++/v1/memory:3614:0
	.cfi_startproc
## %bb.0:
	pushq	%rbp
	.cfi_def_cfa_offset 16
	.cfi_offset %rbp, -16
	movq	%rsp, %rbp
	.cfi_def_cfa_register %rbp
	subq	$32, %rsp
	movq	%rdi, -24(%rbp)
	movq	%rsi, -32(%rbp)
	movq	-24(%rbp), %rdi
Ltmp363:
	.loc	7 3614 95 prologue_end  ## /Applications/Xcode.app/Contents/Developer/Toolchains/XcodeDefault.xctoolchain/usr/bin/../include/c++/v1/memory:3614:95
	movq	-32(%rbp), %rsi
	callq	__ZNSt3__120__shared_ptr_pointerIP1ANS_14default_deleteIS1_EENS_9allocatorIS1_EEEC2ES2_S4_S6_
	.loc	7 3614 96 is_stmt 0     ## /Applications/Xcode.app/Contents/Developer/Toolchains/XcodeDefault.xctoolchain/usr/bin/../include/c++/v1/memory:3614:96
	addq	$32, %rsp
	popq	%rbp
	retq
Ltmp364:
Lfunc_end100:
	.cfi_endproc
                                        ## -- End function
	.p2align	4, 0x90         ## -- Begin function _ZNSt3__110unique_ptrI1ANS_14default_deleteIS1_EEE7releaseEv
__ZNSt3__110unique_ptrI1ANS_14default_deleteIS1_EEE7releaseEv: ## @_ZNSt3__110unique_ptrI1ANS_14default_deleteIS1_EEE7releaseEv
Lfunc_begin101:
	.loc	7 2641 0 is_stmt 1      ## /Applications/Xcode.app/Contents/Developer/Toolchains/XcodeDefault.xctoolchain/usr/bin/../include/c++/v1/memory:2641:0
	.cfi_startproc
## %bb.0:
	pushq	%rbp
	.cfi_def_cfa_offset 16
	.cfi_offset %rbp, -16
	movq	%rsp, %rbp
	.cfi_def_cfa_register %rbp
	subq	$32, %rsp
	movq	%rdi, -8(%rbp)
	movq	-8(%rbp), %rdi
	movq	%rdi, -24(%rbp)         ## 8-byte Spill
Ltmp365:
	.loc	7 2642 26 prologue_end  ## /Applications/Xcode.app/Contents/Developer/Toolchains/XcodeDefault.xctoolchain/usr/bin/../include/c++/v1/memory:2642:26
	callq	__ZNSt3__117__compressed_pairIP1ANS_14default_deleteIS1_EEE5firstEv
	movq	(%rax), %rax
	.loc	7 2642 13 is_stmt 0     ## /Applications/Xcode.app/Contents/Developer/Toolchains/XcodeDefault.xctoolchain/usr/bin/../include/c++/v1/memory:2642:13
	movq	%rax, -16(%rbp)
	movq	-24(%rbp), %rdi         ## 8-byte Reload
	.loc	7 2643 12 is_stmt 1     ## /Applications/Xcode.app/Contents/Developer/Toolchains/XcodeDefault.xctoolchain/usr/bin/../include/c++/v1/memory:2643:12
	callq	__ZNSt3__117__compressed_pairIP1ANS_14default_deleteIS1_EEE5firstEv
	.loc	7 2643 20 is_stmt 0     ## /Applications/Xcode.app/Contents/Developer/Toolchains/XcodeDefault.xctoolchain/usr/bin/../include/c++/v1/memory:2643:20
	movq	$0, (%rax)
	.loc	7 2644 12 is_stmt 1     ## /Applications/Xcode.app/Contents/Developer/Toolchains/XcodeDefault.xctoolchain/usr/bin/../include/c++/v1/memory:2644:12
	movq	-16(%rbp), %rax
	.loc	7 2644 5 is_stmt 0      ## /Applications/Xcode.app/Contents/Developer/Toolchains/XcodeDefault.xctoolchain/usr/bin/../include/c++/v1/memory:2644:5
	addq	$32, %rsp
	popq	%rbp
	retq
Ltmp366:
Lfunc_end101:
	.cfi_endproc
                                        ## -- End function
	.p2align	4, 0x90         ## -- Begin function _ZNSt3__110shared_ptrI1AE18__enable_weak_thisEz
__ZNSt3__110shared_ptrI1AE18__enable_weak_thisEz: ## @_ZNSt3__110shared_ptrI1AE18__enable_weak_thisEz
Lfunc_begin102:
	.loc	7 4036 0 is_stmt 1      ## /Applications/Xcode.app/Contents/Developer/Toolchains/XcodeDefault.xctoolchain/usr/bin/../include/c++/v1/memory:4036:0
	.cfi_startproc
## %bb.0:
	pushq	%rbp
	.cfi_def_cfa_offset 16
	.cfi_offset %rbp, -16
	movq	%rsp, %rbp
	.cfi_def_cfa_register %rbp
	movq	%rdi, -8(%rbp)
Ltmp367:
	.loc	7 4036 122 prologue_end ## /Applications/Xcode.app/Contents/Developer/Toolchains/XcodeDefault.xctoolchain/usr/bin/../include/c++/v1/memory:4036:122
	popq	%rbp
	retq
Ltmp368:
Lfunc_end102:
	.cfi_endproc
                                        ## -- End function
	.p2align	4, 0x90         ## -- Begin function _ZNSt3__110unique_ptrI1ANS_14default_deleteIS1_EEED1Ev
__ZNSt3__110unique_ptrI1ANS_14default_deleteIS1_EEED1Ev: ## @_ZNSt3__110unique_ptrI1ANS_14default_deleteIS1_EEED1Ev
Lfunc_begin103:
	.loc	7 2606 0                ## /Applications/Xcode.app/Contents/Developer/Toolchains/XcodeDefault.xctoolchain/usr/bin/../include/c++/v1/memory:2606:0
	.cfi_startproc
## %bb.0:
	pushq	%rbp
	.cfi_def_cfa_offset 16
	.cfi_offset %rbp, -16
	movq	%rsp, %rbp
	.cfi_def_cfa_register %rbp
	subq	$16, %rsp
	movq	%rdi, -8(%rbp)
	movq	-8(%rbp), %rdi
Ltmp369:
	.loc	7 2606 17 prologue_end  ## /Applications/Xcode.app/Contents/Developer/Toolchains/XcodeDefault.xctoolchain/usr/bin/../include/c++/v1/memory:2606:17
	callq	__ZNSt3__110unique_ptrI1ANS_14default_deleteIS1_EEED2Ev
	.loc	7 2606 28 is_stmt 0     ## /Applications/Xcode.app/Contents/Developer/Toolchains/XcodeDefault.xctoolchain/usr/bin/../include/c++/v1/memory:2606:28
	addq	$16, %rsp
	popq	%rbp
	retq
Ltmp370:
Lfunc_end103:
	.cfi_endproc
                                        ## -- End function
	.p2align	4, 0x90         ## -- Begin function _ZNSt3__110unique_ptrI1ANS_14default_deleteIS1_EEEC2ILb1EvEEPS1_
__ZNSt3__110unique_ptrI1ANS_14default_deleteIS1_EEEC2ILb1EvEEPS1_: ## @_ZNSt3__110unique_ptrI1ANS_14default_deleteIS1_EEEC2ILb1EvEEPS1_
Lfunc_begin104:
	.loc	7 2471 0 is_stmt 1      ## /Applications/Xcode.app/Contents/Developer/Toolchains/XcodeDefault.xctoolchain/usr/bin/../include/c++/v1/memory:2471:0
	.cfi_startproc
	.cfi_personality 155, ___gxx_personality_v0
	.cfi_lsda 16, Lexception10
## %bb.0:
	pushq	%rbp
	.cfi_def_cfa_offset 16
	.cfi_offset %rbp, -16
	movq	%rsp, %rbp
	.cfi_def_cfa_register %rbp
	subq	$32, %rsp
	movq	%rdi, -8(%rbp)
	movq	%rsi, -16(%rbp)
	movq	-8(%rbp), %rdi
Ltmp371:
	leaq	-16(%rbp), %rsi
Ltmp374:
	.loc	7 2471 47 prologue_end  ## /Applications/Xcode.app/Contents/Developer/Toolchains/XcodeDefault.xctoolchain/usr/bin/../include/c++/v1/memory:2471:47
	callq	__ZNSt3__117__compressed_pairIP1ANS_14default_deleteIS1_EEEC1IRS2_Lb1EEEOT_
Ltmp372:
	jmp	LBB104_1
LBB104_1:
	.loc	7 2471 60 is_stmt 0     ## /Applications/Xcode.app/Contents/Developer/Toolchains/XcodeDefault.xctoolchain/usr/bin/../include/c++/v1/memory:2471:60
	addq	$32, %rsp
	popq	%rbp
	retq
LBB104_2:
Ltmp373:
	.loc	7 2471 47               ## /Applications/Xcode.app/Contents/Developer/Toolchains/XcodeDefault.xctoolchain/usr/bin/../include/c++/v1/memory:2471:47
	movq	%rax, %rdi
	movq	%rdx, -24(%rbp)         ## 8-byte Spill
	callq	___clang_call_terminate
Ltmp375:
Lfunc_end104:
	.cfi_endproc
	.section	__TEXT,__gcc_except_tab
	.p2align	2
GCC_except_table104:
Lexception10:
	.byte	255                     ## @LPStart Encoding = omit
	.byte	155                     ## @TType Encoding = indirect pcrel sdata4
	.uleb128 Lttbase6-Lttbaseref6
Lttbaseref6:
	.byte	1                       ## Call site Encoding = uleb128
	.uleb128 Lcst_end10-Lcst_begin10
Lcst_begin10:
	.uleb128 Ltmp371-Lfunc_begin104 ## >> Call Site 1 <<
	.uleb128 Ltmp372-Ltmp371        ##   Call between Ltmp371 and Ltmp372
	.uleb128 Ltmp373-Lfunc_begin104 ##     jumps to Ltmp373
	.byte	1                       ##   On action: 1
Lcst_end10:
	.byte	1                       ## >> Action Record 1 <<
                                        ##   Catch TypeInfo 1
	.byte	0                       ##   No further actions
	.p2align	2
                                        ## >> Catch TypeInfos <<
	.long	0                       ## TypeInfo 1
Lttbase6:
	.p2align	2
                                        ## -- End function
	.section	__TEXT,__text,regular,pure_instructions
	.p2align	4, 0x90         ## -- Begin function _ZNSt3__117__compressed_pairIP1ANS_14default_deleteIS1_EEEC1IRS2_Lb1EEEOT_
__ZNSt3__117__compressed_pairIP1ANS_14default_deleteIS1_EEEC1IRS2_Lb1EEEOT_: ## @_ZNSt3__117__compressed_pairIP1ANS_14default_deleteIS1_EEEC1IRS2_Lb1EEEOT_
Lfunc_begin105:
	.loc	7 2241 0 is_stmt 1      ## /Applications/Xcode.app/Contents/Developer/Toolchains/XcodeDefault.xctoolchain/usr/bin/../include/c++/v1/memory:2241:0
	.cfi_startproc
## %bb.0:
	pushq	%rbp
	.cfi_def_cfa_offset 16
	.cfi_offset %rbp, -16
	movq	%rsp, %rbp
	.cfi_def_cfa_register %rbp
	subq	$16, %rsp
	movq	%rdi, -8(%rbp)
	movq	%rsi, -16(%rbp)
	movq	-8(%rbp), %rdi
Ltmp376:
	.loc	7 2241 50 prologue_end  ## /Applications/Xcode.app/Contents/Developer/Toolchains/XcodeDefault.xctoolchain/usr/bin/../include/c++/v1/memory:2241:50
	movq	-16(%rbp), %rsi
	callq	__ZNSt3__117__compressed_pairIP1ANS_14default_deleteIS1_EEEC2IRS2_Lb1EEEOT_
	.loc	7 2241 51 is_stmt 0     ## /Applications/Xcode.app/Contents/Developer/Toolchains/XcodeDefault.xctoolchain/usr/bin/../include/c++/v1/memory:2241:51
	addq	$16, %rsp
	popq	%rbp
	retq
Ltmp377:
Lfunc_end105:
	.cfi_endproc
                                        ## -- End function
	.p2align	4, 0x90         ## -- Begin function _ZNSt3__117__compressed_pairIP1ANS_14default_deleteIS1_EEEC2IRS2_Lb1EEEOT_
__ZNSt3__117__compressed_pairIP1ANS_14default_deleteIS1_EEEC2IRS2_Lb1EEEOT_: ## @_ZNSt3__117__compressed_pairIP1ANS_14default_deleteIS1_EEEC2IRS2_Lb1EEEOT_
Lfunc_begin106:
	.loc	7 2241 0 is_stmt 1      ## /Applications/Xcode.app/Contents/Developer/Toolchains/XcodeDefault.xctoolchain/usr/bin/../include/c++/v1/memory:2241:0
	.cfi_startproc
## %bb.0:
	pushq	%rbp
	.cfi_def_cfa_offset 16
	.cfi_offset %rbp, -16
	movq	%rsp, %rbp
	.cfi_def_cfa_register %rbp
	subq	$32, %rsp
	movq	%rdi, -8(%rbp)
	movq	%rsi, -16(%rbp)
	movq	-8(%rbp), %rsi
Ltmp378:
	.loc	7 2241 34 prologue_end  ## /Applications/Xcode.app/Contents/Developer/Toolchains/XcodeDefault.xctoolchain/usr/bin/../include/c++/v1/memory:2241:34
	movq	-16(%rbp), %rdi
	movq	%rsi, -24(%rbp)         ## 8-byte Spill
	.loc	7 2241 16 is_stmt 0     ## /Applications/Xcode.app/Contents/Developer/Toolchains/XcodeDefault.xctoolchain/usr/bin/../include/c++/v1/memory:2241:16
	callq	__ZNSt3__1L7forwardIRP1AEEOT_RNS_16remove_referenceIS4_E4typeE
	movq	-24(%rbp), %rdi         ## 8-byte Reload
	.loc	7 2241 9                ## /Applications/Xcode.app/Contents/Developer/Toolchains/XcodeDefault.xctoolchain/usr/bin/../include/c++/v1/memory:2241:9
	movq	%rax, %rsi
	callq	__ZNSt3__122__compressed_pair_elemIP1ALi0ELb0EEC2IRS2_vEEOT_
	.loc	7 2241 51               ## /Applications/Xcode.app/Contents/Developer/Toolchains/XcodeDefault.xctoolchain/usr/bin/../include/c++/v1/memory:2241:51
	addq	$32, %rsp
	popq	%rbp
	retq
Ltmp379:
Lfunc_end106:
	.cfi_endproc
                                        ## -- End function
	.p2align	4, 0x90         ## -- Begin function _ZNSt3__1L7forwardIRP1AEEOT_RNS_16remove_referenceIS4_E4typeE
__ZNSt3__1L7forwardIRP1AEEOT_RNS_16remove_referenceIS4_E4typeE: ## @_ZNSt3__1L7forwardIRP1AEEOT_RNS_16remove_referenceIS4_E4typeE
Lfunc_begin107:
	.loc	8 2320 0 is_stmt 1      ## /Applications/Xcode.app/Contents/Developer/Toolchains/XcodeDefault.xctoolchain/usr/bin/../include/c++/v1/type_traits:2320:0
	.cfi_startproc
## %bb.0:
	pushq	%rbp
	.cfi_def_cfa_offset 16
	.cfi_offset %rbp, -16
	movq	%rsp, %rbp
	.cfi_def_cfa_register %rbp
	movq	%rdi, -8(%rbp)
Ltmp380:
	.loc	8 2321 31 prologue_end  ## /Applications/Xcode.app/Contents/Developer/Toolchains/XcodeDefault.xctoolchain/usr/bin/../include/c++/v1/type_traits:2321:31
	movq	-8(%rbp), %rax
	.loc	8 2321 5 is_stmt 0      ## /Applications/Xcode.app/Contents/Developer/Toolchains/XcodeDefault.xctoolchain/usr/bin/../include/c++/v1/type_traits:2321:5
	popq	%rbp
	retq
Ltmp381:
Lfunc_end107:
	.cfi_endproc
                                        ## -- End function
	.p2align	4, 0x90         ## -- Begin function _ZNSt3__122__compressed_pair_elemIP1ALi0ELb0EEC2IRS2_vEEOT_
__ZNSt3__122__compressed_pair_elemIP1ALi0ELb0EEC2IRS2_vEEOT_: ## @_ZNSt3__122__compressed_pair_elemIP1ALi0ELb0EEC2IRS2_vEEOT_
Lfunc_begin108:
	.loc	7 2149 0 is_stmt 1      ## /Applications/Xcode.app/Contents/Developer/Toolchains/XcodeDefault.xctoolchain/usr/bin/../include/c++/v1/memory:2149:0
	.cfi_startproc
## %bb.0:
	pushq	%rbp
	.cfi_def_cfa_offset 16
	.cfi_offset %rbp, -16
	movq	%rsp, %rbp
	.cfi_def_cfa_register %rbp
	subq	$32, %rsp
	movq	%rdi, -8(%rbp)
	movq	%rsi, -16(%rbp)
	movq	-8(%rbp), %rsi
Ltmp382:
	.loc	7 2148 41 prologue_end  ## /Applications/Xcode.app/Contents/Developer/Toolchains/XcodeDefault.xctoolchain/usr/bin/../include/c++/v1/memory:2148:41
	movq	-16(%rbp), %rdi
	movq	%rsi, -24(%rbp)         ## 8-byte Spill
	.loc	7 2148 18 is_stmt 0     ## /Applications/Xcode.app/Contents/Developer/Toolchains/XcodeDefault.xctoolchain/usr/bin/../include/c++/v1/memory:2148:18
	callq	__ZNSt3__1L7forwardIRP1AEEOT_RNS_16remove_referenceIS4_E4typeE
	movq	(%rax), %rax
	movq	-24(%rbp), %rsi         ## 8-byte Reload
	.loc	7 2148 9                ## /Applications/Xcode.app/Contents/Developer/Toolchains/XcodeDefault.xctoolchain/usr/bin/../include/c++/v1/memory:2148:9
	movq	%rax, (%rsi)
	.loc	7 2150 5 is_stmt 1      ## /Applications/Xcode.app/Contents/Developer/Toolchains/XcodeDefault.xctoolchain/usr/bin/../include/c++/v1/memory:2150:5
	addq	$32, %rsp
	popq	%rbp
	retq
Ltmp383:
Lfunc_end108:
	.cfi_endproc
                                        ## -- End function
	.p2align	4, 0x90         ## -- Begin function _ZNSt3__19allocatorI1AEC2Ev
__ZNSt3__19allocatorI1AEC2Ev:           ## @_ZNSt3__19allocatorI1AEC2Ev
Lfunc_begin109:
	.loc	7 1798 0                ## /Applications/Xcode.app/Contents/Developer/Toolchains/XcodeDefault.xctoolchain/usr/bin/../include/c++/v1/memory:1798:0
	.cfi_startproc
## %bb.0:
	pushq	%rbp
	.cfi_def_cfa_offset 16
	.cfi_offset %rbp, -16
	movq	%rsp, %rbp
	.cfi_def_cfa_register %rbp
	movq	%rdi, -8(%rbp)
Ltmp384:
	.loc	7 1798 27 prologue_end  ## /Applications/Xcode.app/Contents/Developer/Toolchains/XcodeDefault.xctoolchain/usr/bin/../include/c++/v1/memory:1798:27
	popq	%rbp
	retq
Ltmp385:
Lfunc_end109:
	.cfi_endproc
                                        ## -- End function
	.p2align	4, 0x90         ## -- Begin function _ZNSt3__120__shared_ptr_pointerIP1ANS_14default_deleteIS1_EENS_9allocatorIS1_EEEC2ES2_S4_S6_
__ZNSt3__120__shared_ptr_pointerIP1ANS_14default_deleteIS1_EENS_9allocatorIS1_EEEC2ES2_S4_S6_: ## @_ZNSt3__120__shared_ptr_pointerIP1ANS_14default_deleteIS1_EENS_9allocatorIS1_EEEC2ES2_S4_S6_
Lfunc_begin110:
	.loc	7 3614 0                ## /Applications/Xcode.app/Contents/Developer/Toolchains/XcodeDefault.xctoolchain/usr/bin/../include/c++/v1/memory:3614:0
	.cfi_startproc
	.cfi_personality 155, ___gxx_personality_v0
	.cfi_lsda 16, Lexception11
## %bb.0:
	pushq	%rbp
	.cfi_def_cfa_offset 16
	.cfi_offset %rbp, -16
	movq	%rsp, %rbp
	.cfi_def_cfa_register %rbp
	subq	$80, %rsp
	movq	%rdi, -24(%rbp)
	movq	%rsi, -32(%rbp)
	movq	-24(%rbp), %rsi
	xorl	%eax, %eax
	movl	%eax, %edi
	movq	%rdi, -64(%rbp)         ## 8-byte Spill
Ltmp391:
	.loc	7 3613 5 prologue_end   ## /Applications/Xcode.app/Contents/Developer/Toolchains/XcodeDefault.xctoolchain/usr/bin/../include/c++/v1/memory:3613:5
	movq	%rsi, %rdi
	movq	-64(%rbp), %rcx         ## 8-byte Reload
	movq	%rsi, -72(%rbp)         ## 8-byte Spill
	movq	%rcx, %rsi
	callq	__ZNSt3__119__shared_weak_countC2El
	.loc	7 3614 95               ## /Applications/Xcode.app/Contents/Developer/Toolchains/XcodeDefault.xctoolchain/usr/bin/../include/c++/v1/memory:3614:95
	movq	__ZTVNSt3__120__shared_ptr_pointerIP1ANS_14default_deleteIS1_EENS_9allocatorIS1_EEEE@GOTPCREL(%rip), %rcx
	addq	$16, %rcx
	movq	-72(%rbp), %rsi         ## 8-byte Reload
	movq	%rcx, (%rsi)
	.loc	7 3614 11 is_stmt 0     ## /Applications/Xcode.app/Contents/Developer/Toolchains/XcodeDefault.xctoolchain/usr/bin/../include/c++/v1/memory:3614:11
	addq	$24, %rsi
	leaq	-8(%rbp), %rdi
	movq	%rsi, -80(%rbp)         ## 8-byte Spill
	.loc	7 3614 52               ## /Applications/Xcode.app/Contents/Developer/Toolchains/XcodeDefault.xctoolchain/usr/bin/../include/c++/v1/memory:3614:52
	callq	__ZNSt3__1L4moveIRNS_14default_deleteI1AEEEEONS_16remove_referenceIT_E4typeEOS6_
Ltmp386:
	leaq	-40(%rbp), %rdi
	leaq	-32(%rbp), %rsi
	.loc	7 3614 19               ## /Applications/Xcode.app/Contents/Developer/Toolchains/XcodeDefault.xctoolchain/usr/bin/../include/c++/v1/memory:3614:19
	movq	%rax, %rdx
	callq	__ZNSt3__117__compressed_pairIP1ANS_14default_deleteIS1_EEEC1IRS2_S4_EEOT_OT0_
Ltmp387:
	jmp	LBB110_1
LBB110_1:
	.loc	7 0 19                  ## /Applications/Xcode.app/Contents/Developer/Toolchains/XcodeDefault.xctoolchain/usr/bin/../include/c++/v1/memory:0:19
	leaq	-16(%rbp), %rdi
	.loc	7 3614 74               ## /Applications/Xcode.app/Contents/Developer/Toolchains/XcodeDefault.xctoolchain/usr/bin/../include/c++/v1/memory:3614:74
	callq	__ZNSt3__1L4moveIRNS_9allocatorI1AEEEEONS_16remove_referenceIT_E4typeEOS6_
Ltmp388:
	leaq	-40(%rbp), %rsi
	movq	-80(%rbp), %rdi         ## 8-byte Reload
	.loc	7 3614 11               ## /Applications/Xcode.app/Contents/Developer/Toolchains/XcodeDefault.xctoolchain/usr/bin/../include/c++/v1/memory:3614:11
	movq	%rax, %rdx
	callq	__ZNSt3__117__compressed_pairINS0_IP1ANS_14default_deleteIS1_EEEENS_9allocatorIS1_EEEC1IS5_S7_EEOT_OT0_
Ltmp389:
	jmp	LBB110_2
LBB110_2:
	.loc	7 3614 96               ## /Applications/Xcode.app/Contents/Developer/Toolchains/XcodeDefault.xctoolchain/usr/bin/../include/c++/v1/memory:3614:96
	addq	$80, %rsp
	popq	%rbp
	retq
LBB110_3:
Ltmp390:
	movl	%edx, %ecx
	movq	%rax, -48(%rbp)
	movl	%ecx, -52(%rbp)
	movq	-72(%rbp), %rax         ## 8-byte Reload
Ltmp392:
	.loc	7 3614 96               ## /Applications/Xcode.app/Contents/Developer/Toolchains/XcodeDefault.xctoolchain/usr/bin/../include/c++/v1/memory:3614:96
	movq	%rax, %rdi
	callq	__ZNSt3__119__shared_weak_countD2Ev
## %bb.4:
	movq	-48(%rbp), %rdi
	callq	__Unwind_Resume
	ud2
Ltmp393:
Lfunc_end110:
	.cfi_endproc
	.section	__TEXT,__gcc_except_tab
	.p2align	2
GCC_except_table110:
Lexception11:
	.byte	255                     ## @LPStart Encoding = omit
	.byte	255                     ## @TType Encoding = omit
	.byte	1                       ## Call site Encoding = uleb128
	.uleb128 Lcst_end11-Lcst_begin11
Lcst_begin11:
	.uleb128 Ltmp386-Lfunc_begin110 ## >> Call Site 1 <<
	.uleb128 Ltmp389-Ltmp386        ##   Call between Ltmp386 and Ltmp389
	.uleb128 Ltmp390-Lfunc_begin110 ##     jumps to Ltmp390
	.byte	0                       ##   On action: cleanup
	.uleb128 Ltmp389-Lfunc_begin110 ## >> Call Site 2 <<
	.uleb128 Lfunc_end110-Ltmp389   ##   Call between Ltmp389 and Lfunc_end110
	.byte	0                       ##     has no landing pad
	.byte	0                       ##   On action: cleanup
Lcst_end11:
	.p2align	2
                                        ## -- End function
	.section	__TEXT,__text,regular,pure_instructions
	.p2align	4, 0x90         ## -- Begin function _ZNSt3__119__shared_weak_countC2El
__ZNSt3__119__shared_weak_countC2El:    ## @_ZNSt3__119__shared_weak_countC2El
Lfunc_begin111:
	.loc	7 3565 0 is_stmt 1      ## /Applications/Xcode.app/Contents/Developer/Toolchains/XcodeDefault.xctoolchain/usr/bin/../include/c++/v1/memory:3565:0
	.cfi_startproc
## %bb.0:
	pushq	%rbp
	.cfi_def_cfa_offset 16
	.cfi_offset %rbp, -16
	movq	%rsp, %rbp
	.cfi_def_cfa_register %rbp
	subq	$32, %rsp
	movq	%rdi, -8(%rbp)
	movq	%rsi, -16(%rbp)
	movq	-8(%rbp), %rsi
Ltmp394:
	.loc	7 3565 41 prologue_end  ## /Applications/Xcode.app/Contents/Developer/Toolchains/XcodeDefault.xctoolchain/usr/bin/../include/c++/v1/memory:3565:41
	movq	%rsi, %rdi
	.loc	7 3564 26               ## /Applications/Xcode.app/Contents/Developer/Toolchains/XcodeDefault.xctoolchain/usr/bin/../include/c++/v1/memory:3564:26
	movq	-16(%rbp), %rax
	movq	%rsi, -24(%rbp)         ## 8-byte Spill
	.loc	7 3564 11 is_stmt 0     ## /Applications/Xcode.app/Contents/Developer/Toolchains/XcodeDefault.xctoolchain/usr/bin/../include/c++/v1/memory:3564:11
	movq	%rax, %rsi
	callq	__ZNSt3__114__shared_countC2El
	movq	__ZTVNSt3__119__shared_weak_countE@GOTPCREL(%rip), %rax
	addq	$16, %rax
	movq	-24(%rbp), %rsi         ## 8-byte Reload
	.loc	7 3565 41 is_stmt 1     ## /Applications/Xcode.app/Contents/Developer/Toolchains/XcodeDefault.xctoolchain/usr/bin/../include/c++/v1/memory:3565:41
	movq	%rax, (%rsi)
	.loc	7 3565 33 is_stmt 0     ## /Applications/Xcode.app/Contents/Developer/Toolchains/XcodeDefault.xctoolchain/usr/bin/../include/c++/v1/memory:3565:33
	movq	-16(%rbp), %rax
	.loc	7 3565 11               ## /Applications/Xcode.app/Contents/Developer/Toolchains/XcodeDefault.xctoolchain/usr/bin/../include/c++/v1/memory:3565:11
	movq	%rax, 16(%rsi)
	.loc	7 3565 42               ## /Applications/Xcode.app/Contents/Developer/Toolchains/XcodeDefault.xctoolchain/usr/bin/../include/c++/v1/memory:3565:42
	addq	$32, %rsp
	popq	%rbp
	retq
Ltmp395:
Lfunc_end111:
	.cfi_endproc
                                        ## -- End function
	.p2align	4, 0x90         ## -- Begin function _ZNSt3__1L4moveIRNS_14default_deleteI1AEEEEONS_16remove_referenceIT_E4typeEOS6_
__ZNSt3__1L4moveIRNS_14default_deleteI1AEEEEONS_16remove_referenceIT_E4typeEOS6_: ## @_ZNSt3__1L4moveIRNS_14default_deleteI1AEEEEONS_16remove_referenceIT_E4typeEOS6_
Lfunc_begin112:
	.loc	8 2311 0 is_stmt 1      ## /Applications/Xcode.app/Contents/Developer/Toolchains/XcodeDefault.xctoolchain/usr/bin/../include/c++/v1/type_traits:2311:0
	.cfi_startproc
## %bb.0:
	pushq	%rbp
	.cfi_def_cfa_offset 16
	.cfi_offset %rbp, -16
	movq	%rsp, %rbp
	.cfi_def_cfa_register %rbp
	movq	%rdi, -8(%rbp)
Ltmp396:
	.loc	8 2313 31 prologue_end  ## /Applications/Xcode.app/Contents/Developer/Toolchains/XcodeDefault.xctoolchain/usr/bin/../include/c++/v1/type_traits:2313:31
	movq	-8(%rbp), %rax
	.loc	8 2313 5 is_stmt 0      ## /Applications/Xcode.app/Contents/Developer/Toolchains/XcodeDefault.xctoolchain/usr/bin/../include/c++/v1/type_traits:2313:5
	popq	%rbp
	retq
Ltmp397:
Lfunc_end112:
	.cfi_endproc
                                        ## -- End function
	.p2align	4, 0x90         ## -- Begin function _ZNSt3__117__compressed_pairIP1ANS_14default_deleteIS1_EEEC1IRS2_S4_EEOT_OT0_
__ZNSt3__117__compressed_pairIP1ANS_14default_deleteIS1_EEEC1IRS2_S4_EEOT_OT0_: ## @_ZNSt3__117__compressed_pairIP1ANS_14default_deleteIS1_EEEC1IRS2_S4_EEOT_OT0_
Lfunc_begin113:
	.loc	7 2251 0 is_stmt 1      ## /Applications/Xcode.app/Contents/Developer/Toolchains/XcodeDefault.xctoolchain/usr/bin/../include/c++/v1/memory:2251:0
	.cfi_startproc
## %bb.0:
	pushq	%rbp
	.cfi_def_cfa_offset 16
	.cfi_offset %rbp, -16
	movq	%rsp, %rbp
	.cfi_def_cfa_register %rbp
	subq	$32, %rsp
	movq	%rdi, -8(%rbp)
	movq	%rsi, -16(%rbp)
	movq	%rdx, -24(%rbp)
	movq	-8(%rbp), %rdi
Ltmp398:
	.loc	7 2251 74 prologue_end  ## /Applications/Xcode.app/Contents/Developer/Toolchains/XcodeDefault.xctoolchain/usr/bin/../include/c++/v1/memory:2251:74
	movq	-16(%rbp), %rsi
	movq	-24(%rbp), %rdx
	callq	__ZNSt3__117__compressed_pairIP1ANS_14default_deleteIS1_EEEC2IRS2_S4_EEOT_OT0_
	.loc	7 2251 75 is_stmt 0     ## /Applications/Xcode.app/Contents/Developer/Toolchains/XcodeDefault.xctoolchain/usr/bin/../include/c++/v1/memory:2251:75
	addq	$32, %rsp
	popq	%rbp
	retq
Ltmp399:
Lfunc_end113:
	.cfi_endproc
                                        ## -- End function
	.p2align	4, 0x90         ## -- Begin function _ZNSt3__1L4moveIRNS_9allocatorI1AEEEEONS_16remove_referenceIT_E4typeEOS6_
__ZNSt3__1L4moveIRNS_9allocatorI1AEEEEONS_16remove_referenceIT_E4typeEOS6_: ## @_ZNSt3__1L4moveIRNS_9allocatorI1AEEEEONS_16remove_referenceIT_E4typeEOS6_
Lfunc_begin114:
	.loc	8 2311 0 is_stmt 1      ## /Applications/Xcode.app/Contents/Developer/Toolchains/XcodeDefault.xctoolchain/usr/bin/../include/c++/v1/type_traits:2311:0
	.cfi_startproc
## %bb.0:
	pushq	%rbp
	.cfi_def_cfa_offset 16
	.cfi_offset %rbp, -16
	movq	%rsp, %rbp
	.cfi_def_cfa_register %rbp
	movq	%rdi, -8(%rbp)
Ltmp400:
	.loc	8 2313 31 prologue_end  ## /Applications/Xcode.app/Contents/Developer/Toolchains/XcodeDefault.xctoolchain/usr/bin/../include/c++/v1/type_traits:2313:31
	movq	-8(%rbp), %rax
	.loc	8 2313 5 is_stmt 0      ## /Applications/Xcode.app/Contents/Developer/Toolchains/XcodeDefault.xctoolchain/usr/bin/../include/c++/v1/type_traits:2313:5
	popq	%rbp
	retq
Ltmp401:
Lfunc_end114:
	.cfi_endproc
                                        ## -- End function
	.p2align	4, 0x90         ## -- Begin function _ZNSt3__117__compressed_pairINS0_IP1ANS_14default_deleteIS1_EEEENS_9allocatorIS1_EEEC1IS5_S7_EEOT_OT0_
__ZNSt3__117__compressed_pairINS0_IP1ANS_14default_deleteIS1_EEEENS_9allocatorIS1_EEEC1IS5_S7_EEOT_OT0_: ## @_ZNSt3__117__compressed_pairINS0_IP1ANS_14default_deleteIS1_EEEENS_9allocatorIS1_EEEC1IS5_S7_EEOT_OT0_
Lfunc_begin115:
	.loc	7 2251 0 is_stmt 1      ## /Applications/Xcode.app/Contents/Developer/Toolchains/XcodeDefault.xctoolchain/usr/bin/../include/c++/v1/memory:2251:0
	.cfi_startproc
## %bb.0:
	pushq	%rbp
	.cfi_def_cfa_offset 16
	.cfi_offset %rbp, -16
	movq	%rsp, %rbp
	.cfi_def_cfa_register %rbp
	subq	$32, %rsp
	movq	%rdi, -8(%rbp)
	movq	%rsi, -16(%rbp)
	movq	%rdx, -24(%rbp)
	movq	-8(%rbp), %rdi
Ltmp402:
	.loc	7 2251 74 prologue_end  ## /Applications/Xcode.app/Contents/Developer/Toolchains/XcodeDefault.xctoolchain/usr/bin/../include/c++/v1/memory:2251:74
	movq	-16(%rbp), %rsi
	movq	-24(%rbp), %rdx
	callq	__ZNSt3__117__compressed_pairINS0_IP1ANS_14default_deleteIS1_EEEENS_9allocatorIS1_EEEC2IS5_S7_EEOT_OT0_
	.loc	7 2251 75 is_stmt 0     ## /Applications/Xcode.app/Contents/Developer/Toolchains/XcodeDefault.xctoolchain/usr/bin/../include/c++/v1/memory:2251:75
	addq	$32, %rsp
	popq	%rbp
	retq
Ltmp403:
Lfunc_end115:
	.cfi_endproc
                                        ## -- End function
	.globl	__ZNSt3__120__shared_ptr_pointerIP1ANS_14default_deleteIS1_EENS_9allocatorIS1_EEED1Ev ## -- Begin function _ZNSt3__120__shared_ptr_pointerIP1ANS_14default_deleteIS1_EENS_9allocatorIS1_EEED1Ev
	.weak_def_can_be_hidden	__ZNSt3__120__shared_ptr_pointerIP1ANS_14default_deleteIS1_EENS_9allocatorIS1_EEED1Ev
	.p2align	4, 0x90
__ZNSt3__120__shared_ptr_pointerIP1ANS_14default_deleteIS1_EENS_9allocatorIS1_EEED1Ev: ## @_ZNSt3__120__shared_ptr_pointerIP1ANS_14default_deleteIS1_EENS_9allocatorIS1_EEED1Ev
Lfunc_begin116:
	.loc	7 3607 0 is_stmt 1      ## /Applications/Xcode.app/Contents/Developer/Toolchains/XcodeDefault.xctoolchain/usr/bin/../include/c++/v1/memory:3607:0
	.cfi_startproc
## %bb.0:
	pushq	%rbp
	.cfi_def_cfa_offset 16
	.cfi_offset %rbp, -16
	movq	%rsp, %rbp
	.cfi_def_cfa_register %rbp
	subq	$16, %rsp
	movq	%rdi, -8(%rbp)
	movq	-8(%rbp), %rdi
Ltmp404:
	.loc	7 3607 7 prologue_end   ## /Applications/Xcode.app/Contents/Developer/Toolchains/XcodeDefault.xctoolchain/usr/bin/../include/c++/v1/memory:3607:7
	callq	__ZNSt3__120__shared_ptr_pointerIP1ANS_14default_deleteIS1_EENS_9allocatorIS1_EEED2Ev
	addq	$16, %rsp
	popq	%rbp
	retq
Ltmp405:
Lfunc_end116:
	.cfi_endproc
                                        ## -- End function
	.globl	__ZNSt3__120__shared_ptr_pointerIP1ANS_14default_deleteIS1_EENS_9allocatorIS1_EEED0Ev ## -- Begin function _ZNSt3__120__shared_ptr_pointerIP1ANS_14default_deleteIS1_EENS_9allocatorIS1_EEED0Ev
	.weak_def_can_be_hidden	__ZNSt3__120__shared_ptr_pointerIP1ANS_14default_deleteIS1_EENS_9allocatorIS1_EEED0Ev
	.p2align	4, 0x90
__ZNSt3__120__shared_ptr_pointerIP1ANS_14default_deleteIS1_EENS_9allocatorIS1_EEED0Ev: ## @_ZNSt3__120__shared_ptr_pointerIP1ANS_14default_deleteIS1_EENS_9allocatorIS1_EEED0Ev
Lfunc_begin117:
	.loc	7 3607 0                ## /Applications/Xcode.app/Contents/Developer/Toolchains/XcodeDefault.xctoolchain/usr/bin/../include/c++/v1/memory:3607:0
	.cfi_startproc
## %bb.0:
	pushq	%rbp
	.cfi_def_cfa_offset 16
	.cfi_offset %rbp, -16
	movq	%rsp, %rbp
	.cfi_def_cfa_register %rbp
	subq	$16, %rsp
	movq	%rdi, -8(%rbp)
	movq	-8(%rbp), %rdi
	movq	%rdi, -16(%rbp)         ## 8-byte Spill
Ltmp406:
	.loc	7 3607 7 prologue_end   ## /Applications/Xcode.app/Contents/Developer/Toolchains/XcodeDefault.xctoolchain/usr/bin/../include/c++/v1/memory:3607:7
	callq	__ZNSt3__120__shared_ptr_pointerIP1ANS_14default_deleteIS1_EENS_9allocatorIS1_EEED1Ev
	movq	-16(%rbp), %rdi         ## 8-byte Reload
	callq	__ZdlPv
	addq	$16, %rsp
	popq	%rbp
	retq
Ltmp407:
Lfunc_end117:
	.cfi_endproc
                                        ## -- End function
	.globl	__ZNSt3__120__shared_ptr_pointerIP1ANS_14default_deleteIS1_EENS_9allocatorIS1_EEE16__on_zero_sharedEv ## -- Begin function _ZNSt3__120__shared_ptr_pointerIP1ANS_14default_deleteIS1_EENS_9allocatorIS1_EEE16__on_zero_sharedEv
	.weak_def_can_be_hidden	__ZNSt3__120__shared_ptr_pointerIP1ANS_14default_deleteIS1_EENS_9allocatorIS1_EEE16__on_zero_sharedEv
	.p2align	4, 0x90
__ZNSt3__120__shared_ptr_pointerIP1ANS_14default_deleteIS1_EENS_9allocatorIS1_EEE16__on_zero_sharedEv: ## @_ZNSt3__120__shared_ptr_pointerIP1ANS_14default_deleteIS1_EENS_9allocatorIS1_EEE16__on_zero_sharedEv
Lfunc_begin118:
	.loc	7 3639 0                ## /Applications/Xcode.app/Contents/Developer/Toolchains/XcodeDefault.xctoolchain/usr/bin/../include/c++/v1/memory:3639:0
	.cfi_startproc
## %bb.0:
	pushq	%rbp
	.cfi_def_cfa_offset 16
	.cfi_offset %rbp, -16
	movq	%rsp, %rbp
	.cfi_def_cfa_register %rbp
	subq	$32, %rsp
	movq	%rdi, -8(%rbp)
	movq	-8(%rbp), %rdi
Ltmp408:
	.loc	7 3640 5 prologue_end   ## /Applications/Xcode.app/Contents/Developer/Toolchains/XcodeDefault.xctoolchain/usr/bin/../include/c++/v1/memory:3640:5
	movq	%rdi, %rax
	addq	$24, %rax
	movq	%rdi, -16(%rbp)         ## 8-byte Spill
	.loc	7 3640 13 is_stmt 0     ## /Applications/Xcode.app/Contents/Developer/Toolchains/XcodeDefault.xctoolchain/usr/bin/../include/c++/v1/memory:3640:13
	movq	%rax, %rdi
	callq	__ZNSt3__117__compressed_pairINS0_IP1ANS_14default_deleteIS1_EEEENS_9allocatorIS1_EEE5firstEv
	.loc	7 3640 21               ## /Applications/Xcode.app/Contents/Developer/Toolchains/XcodeDefault.xctoolchain/usr/bin/../include/c++/v1/memory:3640:21
	movq	%rax, %rdi
	callq	__ZNSt3__117__compressed_pairIP1ANS_14default_deleteIS1_EEE6secondEv
	movq	-16(%rbp), %rdi         ## 8-byte Reload
	.loc	7 3640 30               ## /Applications/Xcode.app/Contents/Developer/Toolchains/XcodeDefault.xctoolchain/usr/bin/../include/c++/v1/memory:3640:30
	addq	$24, %rdi
	movq	%rax, -24(%rbp)         ## 8-byte Spill
	.loc	7 3640 38               ## /Applications/Xcode.app/Contents/Developer/Toolchains/XcodeDefault.xctoolchain/usr/bin/../include/c++/v1/memory:3640:38
	callq	__ZNSt3__117__compressed_pairINS0_IP1ANS_14default_deleteIS1_EEEENS_9allocatorIS1_EEE5firstEv
	.loc	7 3640 46               ## /Applications/Xcode.app/Contents/Developer/Toolchains/XcodeDefault.xctoolchain/usr/bin/../include/c++/v1/memory:3640:46
	movq	%rax, %rdi
	callq	__ZNSt3__117__compressed_pairIP1ANS_14default_deleteIS1_EEE5firstEv
	movq	(%rax), %rsi
	movq	-24(%rbp), %rdi         ## 8-byte Reload
	.loc	7 3640 5                ## /Applications/Xcode.app/Contents/Developer/Toolchains/XcodeDefault.xctoolchain/usr/bin/../include/c++/v1/memory:3640:5
	callq	__ZNKSt3__114default_deleteI1AEclEPS1_
	movq	-16(%rbp), %rax         ## 8-byte Reload
	.loc	7 3641 5 is_stmt 1      ## /Applications/Xcode.app/Contents/Developer/Toolchains/XcodeDefault.xctoolchain/usr/bin/../include/c++/v1/memory:3641:5
	addq	$24, %rax
	.loc	7 3641 13 is_stmt 0     ## /Applications/Xcode.app/Contents/Developer/Toolchains/XcodeDefault.xctoolchain/usr/bin/../include/c++/v1/memory:3641:13
	movq	%rax, %rdi
	callq	__ZNSt3__117__compressed_pairINS0_IP1ANS_14default_deleteIS1_EEEENS_9allocatorIS1_EEE5firstEv
	.loc	7 3641 21               ## /Applications/Xcode.app/Contents/Developer/Toolchains/XcodeDefault.xctoolchain/usr/bin/../include/c++/v1/memory:3641:21
	movq	%rax, %rdi
	callq	__ZNSt3__117__compressed_pairIP1ANS_14default_deleteIS1_EEE6secondEv
	movq	%rax, -32(%rbp)         ## 8-byte Spill
	.loc	7 3642 1 is_stmt 1      ## /Applications/Xcode.app/Contents/Developer/Toolchains/XcodeDefault.xctoolchain/usr/bin/../include/c++/v1/memory:3642:1
	addq	$32, %rsp
	popq	%rbp
	retq
Ltmp409:
Lfunc_end118:
	.cfi_endproc
                                        ## -- End function
	.globl	__ZNKSt3__120__shared_ptr_pointerIP1ANS_14default_deleteIS1_EENS_9allocatorIS1_EEE13__get_deleterERKSt9type_info ## -- Begin function _ZNKSt3__120__shared_ptr_pointerIP1ANS_14default_deleteIS1_EENS_9allocatorIS1_EEE13__get_deleterERKSt9type_info
	.weak_def_can_be_hidden	__ZNKSt3__120__shared_ptr_pointerIP1ANS_14default_deleteIS1_EENS_9allocatorIS1_EEE13__get_deleterERKSt9type_info
	.p2align	4, 0x90
